; Microsoft (R) C/C++ Optimizing Compiler Version 19.51.36248 for x64
; cl /nologo /c /O2 /std:c++20 /EHsc /W3 /Isrc\tenvex /FA cg_composed.cpp
; Listing generated by Microsoft (R) Optimizing Compiler Version 19.51.36248.0 

include listing.inc

INCLUDELIB LIBCMT
INCLUDELIB OLDNAMES

PUBLIC	?set@detail@tnvx@@YA?AT__m128@@MMMM@Z		; tnvx::detail::set
PUBLIC	?to_float@detail@tnvx@@YAMT__m128@@@Z		; tnvx::detail::to_float
PUBLIC	?scalar@detail@tnvx@@YA?AT__m128@@M@Z		; tnvx::detail::scalar
PUBLIC	?add@detail@tnvx@@YA?AT__m128@@T3@0@Z		; tnvx::detail::add
PUBLIC	?sub@detail@tnvx@@YA?AT__m128@@T3@0@Z		; tnvx::detail::sub
PUBLIC	?mul@detail@tnvx@@YA?AT__m128@@T3@0@Z		; tnvx::detail::mul
PUBLIC	?dot3@detail@tnvx@@YA?AT__m128@@T3@0@Z		; tnvx::detail::dot3
PUBLIC	?dot4@detail@tnvx@@YA?AT__m128@@T3@0@Z		; tnvx::detail::dot4
PUBLIC	?magnitude3_sq@detail@tnvx@@YA?AT__m128@@T3@@Z	; tnvx::detail::magnitude3_sq
PUBLIC	?magnitude4@detail@tnvx@@YA?AT__m128@@T3@@Z	; tnvx::detail::magnitude4
PUBLIC	?max@detail@tnvx@@YA?AT__m128@@T3@0@Z		; tnvx::detail::max
PUBLIC	?min@detail@tnvx@@YA?AT__m128@@T3@0@Z		; tnvx::detail::min
PUBLIC	?normalize4@detail@tnvx@@YA?AT__m128@@T3@@Z	; tnvx::detail::normalize4
PUBLIC	??0Scalar@tnvx@@QEAA@M@Z			; tnvx::Scalar::Scalar
PUBLIC	?eval@Scalar@tnvx@@QEBA?AT__m128@@XZ		; tnvx::Scalar::eval
PUBLIC	??0vec4@tnvx@@QEAA@MMMM@Z			; tnvx::vec4::vec4
PUBLIC	?x@vec4@tnvx@@QEBAMXZ				; tnvx::vec4::x
PUBLIC	?y@vec4@tnvx@@QEBAMXZ				; tnvx::vec4::y
PUBLIC	?z@vec4@tnvx@@QEBAMXZ				; tnvx::vec4::z
PUBLIC	?eval@vec4@tnvx@@QEBA?AT__m128@@XZ		; tnvx::vec4::eval
PUBLIC	??$get_lane@$0A@@detail@tnvx@@YAMT__m128@@@Z	; tnvx::detail::get_lane<0>
PUBLIC	??$get_lane@$00@detail@tnvx@@YAMT__m128@@@Z	; tnvx::detail::get_lane<1>
PUBLIC	??$get_lane@$01@detail@tnvx@@YAMT__m128@@@Z	; tnvx::detail::get_lane<2>
PUBLIC	?orthogonal@tnvx@@YA?AUvec4@1@AEBU21@@Z		; tnvx::orthogonal
PUBLIC	fabsf
PUBLIC	?fabs@@YAMM@Z					; fabs
PUBLIC	?eval@quat@tnvx@@QEBA?AT__m128@@XZ		; tnvx::quat::eval
PUBLIC	??$dot3@Uvec4@tnvx@@U12@@tnvx@@YA?AU?$Dot3@Uvec4@tnvx@@U12@@0@AEBUvec4@0@0@Z ; tnvx::dot3<tnvx::vec4,tnvx::vec4>
PUBLIC	??0?$Dot3@Uvec4@tnvx@@U12@@tnvx@@QEAA@AEIBUvec4@1@0@Z ; tnvx::Dot3<tnvx::vec4,tnvx::vec4>::Dot3<tnvx::vec4,tnvx::vec4>
PUBLIC	?eval@?$Dot3@Uvec4@tnvx@@U12@@tnvx@@QEBA?AT__m128@@XZ ; tnvx::Dot3<tnvx::vec4,tnvx::vec4>::eval
PUBLIC	cg_lerp
PUBLIC	??$lerp@Uvec4@tnvx@@U12@@tnvx@@YA?AUvec4@0@AEBU10@0M@Z ; tnvx::lerp<tnvx::vec4,tnvx::vec4>
PUBLIC	cg_clamp
PUBLIC	??$clamp@Uvec4@tnvx@@U12@U12@@tnvx@@YA?AUvec4@0@AEBU10@00@Z ; tnvx::clamp<tnvx::vec4,tnvx::vec4,tnvx::vec4>
PUBLIC	cg_reflect
PUBLIC	??$reflect@Uvec4@tnvx@@U12@@tnvx@@YA?AUvec4@0@AEBU10@0@Z ; tnvx::reflect<tnvx::vec4,tnvx::vec4>
PUBLIC	cg_distance3_sq
PUBLIC	??$distance3_sq@Uvec4@tnvx@@U12@@tnvx@@YAMAEBUvec4@0@0@Z ; tnvx::distance3_sq<tnvx::vec4,tnvx::vec4>
PUBLIC	cg_orthogonal
PUBLIC	cg_nlerp
PUBLIC	??$nlerp@Uquat@tnvx@@U12@@tnvx@@YA?AUquat@0@AEBU10@0M@Z ; tnvx::nlerp<tnvx::quat,tnvx::quat>
PUBLIC	??$?GUvec4@tnvx@@U01@@tnvx@@YA?AU?$Sub@Uvec4@tnvx@@U12@@0@AEBUvec4@0@0@Z ; tnvx::operator-<tnvx::vec4,tnvx::vec4>
PUBLIC	??0?$Sub@Uvec4@tnvx@@U12@@tnvx@@QEAA@AEIBUvec4@1@0@Z ; tnvx::Sub<tnvx::vec4,tnvx::vec4>::Sub<tnvx::vec4,tnvx::vec4>
PUBLIC	?eval@?$Sub@Uvec4@tnvx@@U12@@tnvx@@QEBA?AT__m128@@XZ ; tnvx::Sub<tnvx::vec4,tnvx::vec4>::eval
PUBLIC	??$?DU?$Sub@Uvec4@tnvx@@U12@@tnvx@@@tnvx@@YA?AU?$Mul@U?$Sub@Uvec4@tnvx@@U12@@tnvx@@UScalar@2@@0@AEBU?$Sub@Uvec4@tnvx@@U12@@0@M@Z ; tnvx::operator*<tnvx::Sub<tnvx::vec4,tnvx::vec4> >
PUBLIC	??0?$Mul@U?$Sub@Uvec4@tnvx@@U12@@tnvx@@UScalar@2@@tnvx@@QEAA@AEIBU?$Sub@Uvec4@tnvx@@U12@@1@AEIBUScalar@1@@Z ; tnvx::Mul<tnvx::Sub<tnvx::vec4,tnvx::vec4>,tnvx::Scalar>::Mul<tnvx::Sub<tnvx::vec4,tnvx::vec4>,tnvx::Scalar>
PUBLIC	?eval@?$Mul@U?$Sub@Uvec4@tnvx@@U12@@tnvx@@UScalar@2@@tnvx@@QEBA?AT__m128@@XZ ; tnvx::Mul<tnvx::Sub<tnvx::vec4,tnvx::vec4>,tnvx::Scalar>::eval
PUBLIC	??$?HUvec4@tnvx@@U?$Mul@U?$Sub@Uvec4@tnvx@@U12@@tnvx@@UScalar@2@@1@@tnvx@@YA?AU?$Add@Uvec4@tnvx@@U?$Mul@U?$Sub@Uvec4@tnvx@@U12@@tnvx@@UScalar@2@@2@@0@AEBUvec4@0@AEBU?$Mul@U?$Sub@Uvec4@tnvx@@U12@@tnvx@@UScalar@2@@0@@Z ; tnvx::operator+<tnvx::vec4,tnvx::Mul<tnvx::Sub<tnvx::vec4,tnvx::vec4>,tnvx::Scalar> >
PUBLIC	??0?$Add@Uvec4@tnvx@@U?$Mul@U?$Sub@Uvec4@tnvx@@U12@@tnvx@@UScalar@2@@2@@tnvx@@QEAA@AEIBUvec4@1@AEIBU?$Mul@U?$Sub@Uvec4@tnvx@@U12@@tnvx@@UScalar@2@@1@@Z ; tnvx::Add<tnvx::vec4,tnvx::Mul<tnvx::Sub<tnvx::vec4,tnvx::vec4>,tnvx::Scalar> >::Add<tnvx::vec4,tnvx::Mul<tnvx::Sub<tnvx::vec4,tnvx::vec4>,tnvx::Scalar> >
PUBLIC	?eval@?$Add@Uvec4@tnvx@@U?$Mul@U?$Sub@Uvec4@tnvx@@U12@@tnvx@@UScalar@2@@2@@tnvx@@QEBA?AT__m128@@XZ ; tnvx::Add<tnvx::vec4,tnvx::Mul<tnvx::Sub<tnvx::vec4,tnvx::vec4>,tnvx::Scalar> >::eval
PUBLIC	??$?0U?$Add@Uvec4@tnvx@@U?$Mul@U?$Sub@Uvec4@tnvx@@U12@@tnvx@@UScalar@2@@2@@tnvx@@@vec4@tnvx@@QEAA@AEBU?$Add@Uvec4@tnvx@@U?$Mul@U?$Sub@Uvec4@tnvx@@U12@@tnvx@@UScalar@2@@2@@1@@Z ; tnvx::vec4::vec4<tnvx::Add<tnvx::vec4,tnvx::Mul<tnvx::Sub<tnvx::vec4,tnvx::vec4>,tnvx::Scalar> > >
PUBLIC	??$max@Uvec4@tnvx@@U12@@tnvx@@YA?AU?$Max@Uvec4@tnvx@@U12@@0@AEBUvec4@0@0@Z ; tnvx::max<tnvx::vec4,tnvx::vec4>
PUBLIC	??0?$Max@Uvec4@tnvx@@U12@@tnvx@@QEAA@AEIBUvec4@1@0@Z ; tnvx::Max<tnvx::vec4,tnvx::vec4>::Max<tnvx::vec4,tnvx::vec4>
PUBLIC	?eval@?$Max@Uvec4@tnvx@@U12@@tnvx@@QEBA?AT__m128@@XZ ; tnvx::Max<tnvx::vec4,tnvx::vec4>::eval
PUBLIC	??$min@U?$Max@Uvec4@tnvx@@U12@@tnvx@@Uvec4@2@@tnvx@@YA?AU?$Min@U?$Max@Uvec4@tnvx@@U12@@tnvx@@Uvec4@2@@0@AEBU?$Max@Uvec4@tnvx@@U12@@0@AEBUvec4@0@@Z ; tnvx::min<tnvx::Max<tnvx::vec4,tnvx::vec4>,tnvx::vec4>
PUBLIC	??0?$Min@U?$Max@Uvec4@tnvx@@U12@@tnvx@@Uvec4@2@@tnvx@@QEAA@AEIBU?$Max@Uvec4@tnvx@@U12@@1@AEIBUvec4@1@@Z ; tnvx::Min<tnvx::Max<tnvx::vec4,tnvx::vec4>,tnvx::vec4>::Min<tnvx::Max<tnvx::vec4,tnvx::vec4>,tnvx::vec4>
PUBLIC	?eval@?$Min@U?$Max@Uvec4@tnvx@@U12@@tnvx@@Uvec4@2@@tnvx@@QEBA?AT__m128@@XZ ; tnvx::Min<tnvx::Max<tnvx::vec4,tnvx::vec4>,tnvx::vec4>::eval
PUBLIC	??$?0U?$Min@U?$Max@Uvec4@tnvx@@U12@@tnvx@@Uvec4@2@@tnvx@@@vec4@tnvx@@QEAA@AEBU?$Min@U?$Max@Uvec4@tnvx@@U12@@tnvx@@Uvec4@2@@1@@Z ; tnvx::vec4::vec4<tnvx::Min<tnvx::Max<tnvx::vec4,tnvx::vec4>,tnvx::vec4> >
PUBLIC	??$?DU?$Dot3@Uvec4@tnvx@@U12@@tnvx@@@tnvx@@YA?AU?$Mul@U?$Dot3@Uvec4@tnvx@@U12@@tnvx@@UScalar@2@@0@AEBU?$Dot3@Uvec4@tnvx@@U12@@0@M@Z ; tnvx::operator*<tnvx::Dot3<tnvx::vec4,tnvx::vec4> >
PUBLIC	??0?$Mul@U?$Dot3@Uvec4@tnvx@@U12@@tnvx@@UScalar@2@@tnvx@@QEAA@AEIBU?$Dot3@Uvec4@tnvx@@U12@@1@AEIBUScalar@1@@Z ; tnvx::Mul<tnvx::Dot3<tnvx::vec4,tnvx::vec4>,tnvx::Scalar>::Mul<tnvx::Dot3<tnvx::vec4,tnvx::vec4>,tnvx::Scalar>
PUBLIC	?eval@?$Mul@U?$Dot3@Uvec4@tnvx@@U12@@tnvx@@UScalar@2@@tnvx@@QEBA?AT__m128@@XZ ; tnvx::Mul<tnvx::Dot3<tnvx::vec4,tnvx::vec4>,tnvx::Scalar>::eval
PUBLIC	??$?DUvec4@tnvx@@U?$Mul@U?$Dot3@Uvec4@tnvx@@U12@@tnvx@@UScalar@2@@1@@tnvx@@YA?AU?$Mul@Uvec4@tnvx@@U?$Mul@U?$Dot3@Uvec4@tnvx@@U12@@tnvx@@UScalar@2@@2@@0@AEBUvec4@0@AEBU?$Mul@U?$Dot3@Uvec4@tnvx@@U12@@tnvx@@UScalar@2@@0@@Z ; tnvx::operator*<tnvx::vec4,tnvx::Mul<tnvx::Dot3<tnvx::vec4,tnvx::vec4>,tnvx::Scalar> >
PUBLIC	??0?$Mul@Uvec4@tnvx@@U?$Mul@U?$Dot3@Uvec4@tnvx@@U12@@tnvx@@UScalar@2@@2@@tnvx@@QEAA@AEIBUvec4@1@AEIBU?$Mul@U?$Dot3@Uvec4@tnvx@@U12@@tnvx@@UScalar@2@@1@@Z ; tnvx::Mul<tnvx::vec4,tnvx::Mul<tnvx::Dot3<tnvx::vec4,tnvx::vec4>,tnvx::Scalar> >::Mul<tnvx::vec4,tnvx::Mul<tnvx::Dot3<tnvx::vec4,tnvx::vec4>,tnvx::Scalar> >
PUBLIC	?eval@?$Mul@Uvec4@tnvx@@U?$Mul@U?$Dot3@Uvec4@tnvx@@U12@@tnvx@@UScalar@2@@2@@tnvx@@QEBA?AT__m128@@XZ ; tnvx::Mul<tnvx::vec4,tnvx::Mul<tnvx::Dot3<tnvx::vec4,tnvx::vec4>,tnvx::Scalar> >::eval
PUBLIC	??$?GUvec4@tnvx@@U?$Mul@Uvec4@tnvx@@U?$Mul@U?$Dot3@Uvec4@tnvx@@U12@@tnvx@@UScalar@2@@2@@1@@tnvx@@YA?AU?$Sub@Uvec4@tnvx@@U?$Mul@Uvec4@tnvx@@U?$Mul@U?$Dot3@Uvec4@tnvx@@U12@@tnvx@@UScalar@2@@2@@2@@0@AEBUvec4@0@AEBU?$Mul@Uvec4@tnvx@@U?$Mul@U?$Dot3@Uvec4@tnvx@@U12@@tnvx@@UScalar@2@@2@@0@@Z ; tnvx::operator-<tnvx::vec4,tnvx::Mul<tnvx::vec4,tnvx::Mul<tnvx::Dot3<tnvx::vec4,tnvx::vec4>,tnvx::Scalar> > >
PUBLIC	??0?$Sub@Uvec4@tnvx@@U?$Mul@Uvec4@tnvx@@U?$Mul@U?$Dot3@Uvec4@tnvx@@U12@@tnvx@@UScalar@2@@2@@2@@tnvx@@QEAA@AEIBUvec4@1@AEIBU?$Mul@Uvec4@tnvx@@U?$Mul@U?$Dot3@Uvec4@tnvx@@U12@@tnvx@@UScalar@2@@2@@1@@Z ; tnvx::Sub<tnvx::vec4,tnvx::Mul<tnvx::vec4,tnvx::Mul<tnvx::Dot3<tnvx::vec4,tnvx::vec4>,tnvx::Scalar> > >::Sub<tnvx::vec4,tnvx::Mul<tnvx::vec4,tnvx::Mul<tnvx::Dot3<tnvx::vec4,tnvx::vec4>,tnvx::Scalar> > >
PUBLIC	?eval@?$Sub@Uvec4@tnvx@@U?$Mul@Uvec4@tnvx@@U?$Mul@U?$Dot3@Uvec4@tnvx@@U12@@tnvx@@UScalar@2@@2@@2@@tnvx@@QEBA?AT__m128@@XZ ; tnvx::Sub<tnvx::vec4,tnvx::Mul<tnvx::vec4,tnvx::Mul<tnvx::Dot3<tnvx::vec4,tnvx::vec4>,tnvx::Scalar> > >::eval
PUBLIC	??$?0U?$Sub@Uvec4@tnvx@@U?$Mul@Uvec4@tnvx@@U?$Mul@U?$Dot3@Uvec4@tnvx@@U12@@tnvx@@UScalar@2@@2@@2@@tnvx@@@vec4@tnvx@@QEAA@AEBU?$Sub@Uvec4@tnvx@@U?$Mul@Uvec4@tnvx@@U?$Mul@U?$Dot3@Uvec4@tnvx@@U12@@tnvx@@UScalar@2@@2@@2@@1@@Z ; tnvx::vec4::vec4<tnvx::Sub<tnvx::vec4,tnvx::Mul<tnvx::vec4,tnvx::Mul<tnvx::Dot3<tnvx::vec4,tnvx::vec4>,tnvx::Scalar> > > >
PUBLIC	??$magnitude3_sq@U?$Sub@Uvec4@tnvx@@U12@@tnvx@@@tnvx@@YA?AU?$Magn3Sq@U?$Sub@Uvec4@tnvx@@U12@@tnvx@@@0@AEBU?$Sub@Uvec4@tnvx@@U12@@0@@Z ; tnvx::magnitude3_sq<tnvx::Sub<tnvx::vec4,tnvx::vec4> >
PUBLIC	??0?$Magn3Sq@U?$Sub@Uvec4@tnvx@@U12@@tnvx@@@tnvx@@QEAA@AEIBU?$Sub@Uvec4@tnvx@@U12@@1@@Z ; tnvx::Magn3Sq<tnvx::Sub<tnvx::vec4,tnvx::vec4> >::Magn3Sq<tnvx::Sub<tnvx::vec4,tnvx::vec4> >
PUBLIC	?eval@?$Magn3Sq@U?$Sub@Uvec4@tnvx@@U12@@tnvx@@@tnvx@@QEBA?AT__m128@@XZ ; tnvx::Magn3Sq<tnvx::Sub<tnvx::vec4,tnvx::vec4> >::eval
PUBLIC	??B?$Magn3Sq@U?$Sub@Uvec4@tnvx@@U12@@tnvx@@@tnvx@@QEBAMXZ ; tnvx::Magn3Sq<tnvx::Sub<tnvx::vec4,tnvx::vec4> >::operator float
PUBLIC	??$dot4@Uquat@tnvx@@U12@@tnvx@@YA?AU?$Dot4@Uquat@tnvx@@U12@@0@AEBUquat@0@0@Z ; tnvx::dot4<tnvx::quat,tnvx::quat>
PUBLIC	??0?$Dot4@Uquat@tnvx@@U12@@tnvx@@QEAA@AEIBUquat@1@0@Z ; tnvx::Dot4<tnvx::quat,tnvx::quat>::Dot4<tnvx::quat,tnvx::quat>
PUBLIC	?eval@?$Dot4@Uquat@tnvx@@U12@@tnvx@@QEBA?AT__m128@@XZ ; tnvx::Dot4<tnvx::quat,tnvx::quat>::eval
PUBLIC	??B?$Dot4@Uquat@tnvx@@U12@@tnvx@@QEBAMXZ	; tnvx::Dot4<tnvx::quat,tnvx::quat>::operator float
PUBLIC	??$?DUquat@tnvx@@@tnvx@@YA?AU?$Mul@Uquat@tnvx@@UScalar@2@@0@AEBUquat@0@M@Z ; tnvx::operator*<tnvx::quat>
PUBLIC	??0?$Mul@Uquat@tnvx@@UScalar@2@@tnvx@@QEAA@AEIBUquat@1@AEIBUScalar@1@@Z ; tnvx::Mul<tnvx::quat,tnvx::Scalar>::Mul<tnvx::quat,tnvx::Scalar>
PUBLIC	?eval@?$Mul@Uquat@tnvx@@UScalar@2@@tnvx@@QEBA?AT__m128@@XZ ; tnvx::Mul<tnvx::quat,tnvx::Scalar>::eval
PUBLIC	??$?HU?$Mul@Uquat@tnvx@@UScalar@2@@tnvx@@U01@@tnvx@@YA?AU?$Add@U?$Mul@Uquat@tnvx@@UScalar@2@@tnvx@@U12@@0@AEBU?$Mul@Uquat@tnvx@@UScalar@2@@0@0@Z ; tnvx::operator+<tnvx::Mul<tnvx::quat,tnvx::Scalar>,tnvx::Mul<tnvx::quat,tnvx::Scalar> >
PUBLIC	??0?$Add@U?$Mul@Uquat@tnvx@@UScalar@2@@tnvx@@U12@@tnvx@@QEAA@AEIBU?$Mul@Uquat@tnvx@@UScalar@2@@1@0@Z ; tnvx::Add<tnvx::Mul<tnvx::quat,tnvx::Scalar>,tnvx::Mul<tnvx::quat,tnvx::Scalar> >::Add<tnvx::Mul<tnvx::quat,tnvx::Scalar>,tnvx::Mul<tnvx::quat,tnvx::Scalar> >
PUBLIC	?eval@?$Add@U?$Mul@Uquat@tnvx@@UScalar@2@@tnvx@@U12@@tnvx@@QEBA?AT__m128@@XZ ; tnvx::Add<tnvx::Mul<tnvx::quat,tnvx::Scalar>,tnvx::Mul<tnvx::quat,tnvx::Scalar> >::eval
PUBLIC	??$normalize4@U?$Add@U?$Mul@Uquat@tnvx@@UScalar@2@@tnvx@@U12@@tnvx@@@tnvx@@YA?AU?$Normalize4@U?$Add@U?$Mul@Uquat@tnvx@@UScalar@2@@tnvx@@U12@@tnvx@@@0@AEBU?$Add@U?$Mul@Uquat@tnvx@@UScalar@2@@tnvx@@U12@@0@@Z ; tnvx::normalize4<tnvx::Add<tnvx::Mul<tnvx::quat,tnvx::Scalar>,tnvx::Mul<tnvx::quat,tnvx::Scalar> > >
PUBLIC	??0?$Normalize4@U?$Add@U?$Mul@Uquat@tnvx@@UScalar@2@@tnvx@@U12@@tnvx@@@tnvx@@QEAA@AEIBU?$Add@U?$Mul@Uquat@tnvx@@UScalar@2@@tnvx@@U12@@1@@Z ; tnvx::Normalize4<tnvx::Add<tnvx::Mul<tnvx::quat,tnvx::Scalar>,tnvx::Mul<tnvx::quat,tnvx::Scalar> > >::Normalize4<tnvx::Add<tnvx::Mul<tnvx::quat,tnvx::Scalar>,tnvx::Mul<tnvx::quat,tnvx::Scalar> > >
PUBLIC	?eval@?$Normalize4@U?$Add@U?$Mul@Uquat@tnvx@@UScalar@2@@tnvx@@U12@@tnvx@@@tnvx@@QEBA?AT__m128@@XZ ; tnvx::Normalize4<tnvx::Add<tnvx::Mul<tnvx::quat,tnvx::Scalar>,tnvx::Mul<tnvx::quat,tnvx::Scalar> > >::eval
PUBLIC	??$?0U?$Normalize4@U?$Add@U?$Mul@Uquat@tnvx@@UScalar@2@@tnvx@@U12@@tnvx@@@tnvx@@@quat@tnvx@@QEAA@AEBU?$Normalize4@U?$Add@U?$Mul@Uquat@tnvx@@UScalar@2@@tnvx@@U12@@tnvx@@@1@@Z ; tnvx::quat::quat<tnvx::Normalize4<tnvx::Add<tnvx::Mul<tnvx::quat,tnvx::Scalar>,tnvx::Mul<tnvx::quat,tnvx::Scalar> > > >
PUBLIC	__real@3f800000
PUBLIC	__real@bf800000
PUBLIC	__xmm@40000000400000004000000040000000
PUBLIC	__xmm@7fffffff7fffffff7fffffff7fffffff
PUBLIC	__xmm@80000000800000008000000080000000
EXTRN	_fltused:DWORD
;	COMDAT pdata
pdata	SEGMENT
$pdata$cg_lerp DD imagerel $LN84
	DD	imagerel $LN84+25
	DD	imagerel $unwind$cg_lerp
pdata	ENDS
;	COMDAT pdata
pdata	SEGMENT
$pdata$0$cg_lerp DD imagerel $LN84+25
	DD	imagerel $LN84+185
	DD	imagerel $chain$0$cg_lerp
pdata	ENDS
;	COMDAT pdata
pdata	SEGMENT
$pdata$1$cg_lerp DD imagerel $LN84+185
	DD	imagerel $LN84+236
	DD	imagerel $chain$1$cg_lerp
pdata	ENDS
;	COMDAT pdata
pdata	SEGMENT
$pdata$cg_reflect DD imagerel $LN99
	DD	imagerel $LN99+25
	DD	imagerel $unwind$cg_reflect
pdata	ENDS
;	COMDAT pdata
pdata	SEGMENT
$pdata$0$cg_reflect DD imagerel $LN99+25
	DD	imagerel $LN99+312
	DD	imagerel $chain$0$cg_reflect
pdata	ENDS
;	COMDAT pdata
pdata	SEGMENT
$pdata$1$cg_reflect DD imagerel $LN99+312
	DD	imagerel $LN99+392
	DD	imagerel $chain$1$cg_reflect
pdata	ENDS
;	COMDAT pdata
pdata	SEGMENT
$pdata$cg_distance3_sq DD imagerel $LN62
	DD	imagerel $LN62+17
	DD	imagerel $unwind$cg_distance3_sq
pdata	ENDS
;	COMDAT pdata
pdata	SEGMENT
$pdata$0$cg_distance3_sq DD imagerel $LN62+17
	DD	imagerel $LN62+224
	DD	imagerel $chain$0$cg_distance3_sq
pdata	ENDS
;	COMDAT pdata
pdata	SEGMENT
$pdata$1$cg_distance3_sq DD imagerel $LN62+224
	DD	imagerel $LN62+286
	DD	imagerel $chain$1$cg_distance3_sq
pdata	ENDS
;	COMDAT pdata
pdata	SEGMENT
$pdata$cg_orthogonal DD imagerel $LN79
	DD	imagerel $LN79+476
	DD	imagerel $unwind$cg_orthogonal
pdata	ENDS
;	COMDAT pdata
pdata	SEGMENT
$pdata$cg_nlerp DD imagerel $LN148
	DD	imagerel $LN148+58
	DD	imagerel $unwind$cg_nlerp
pdata	ENDS
;	COMDAT pdata
pdata	SEGMENT
$pdata$1$cg_nlerp DD imagerel $LN148+58
	DD	imagerel $LN148+441
	DD	imagerel $chain$1$cg_nlerp
pdata	ENDS
;	COMDAT pdata
pdata	SEGMENT
$pdata$2$cg_nlerp DD imagerel $LN148+441
	DD	imagerel $LN148+551
	DD	imagerel $chain$2$cg_nlerp
pdata	ENDS
;	COMDAT __xmm@80000000800000008000000080000000
CONST	SEGMENT
__xmm@80000000800000008000000080000000 DB 00H, 00H, 00H, 080H, 00H, 00H, 00H
	DB	080H, 00H, 00H, 00H, 080H, 00H, 00H, 00H, 080H
CONST	ENDS
;	COMDAT __xmm@7fffffff7fffffff7fffffff7fffffff
CONST	SEGMENT
__xmm@7fffffff7fffffff7fffffff7fffffff DB 0ffH, 0ffH, 0ffH, 07fH, 0ffH, 0ffH
	DB	0ffH, 07fH, 0ffH, 0ffH, 0ffH, 07fH, 0ffH, 0ffH, 0ffH, 07fH
CONST	ENDS
;	COMDAT __xmm@40000000400000004000000040000000
CONST	SEGMENT
__xmm@40000000400000004000000040000000 DB 00H, 00H, 00H, '@', 00H, 00H, 00H
	DB	'@', 00H, 00H, 00H, '@', 00H, 00H, 00H, '@'
CONST	ENDS
;	COMDAT __real@bf800000
CONST	SEGMENT
__real@bf800000 DD 0bf800000r			; -1
CONST	ENDS
;	COMDAT __real@3f800000
CONST	SEGMENT
__real@3f800000 DD 03f800000r			; 1
CONST	ENDS
;	COMDAT xdata
xdata	SEGMENT
$chain$2$cg_nlerp DD 021H
	DD	imagerel $LN148
	DD	imagerel $LN148+58
	DD	imagerel $unwind$cg_nlerp
xdata	ENDS
;	COMDAT xdata
xdata	SEGMENT
$chain$1$cg_nlerp DD 040c21H
	DD	01680cH
	DD	043405H
	DD	imagerel $LN148
	DD	imagerel $LN148+58
	DD	imagerel $unwind$cg_nlerp
xdata	ENDS
;	COMDAT xdata
xdata	SEGMENT
$unwind$cg_nlerp DD 032601H
	DD	07826H
	DD	04204H
xdata	ENDS
;	COMDAT xdata
xdata	SEGMENT
$unwind$cg_orthogonal DD 031201H
	DD	06812H
	DD	02204H
xdata	ENDS
;	COMDAT xdata
xdata	SEGMENT
$chain$1$cg_distance3_sq DD 021H
	DD	imagerel $LN62
	DD	imagerel $LN62+17
	DD	imagerel $unwind$cg_distance3_sq
xdata	ENDS
;	COMDAT xdata
xdata	SEGMENT
$chain$0$cg_distance3_sq DD 020421H
	DD	03404H
	DD	imagerel $LN62
	DD	imagerel $LN62+17
	DD	imagerel $unwind$cg_distance3_sq
xdata	ENDS
;	COMDAT xdata
xdata	SEGMENT
$unwind$cg_distance3_sq DD 010401H
	DD	0204H
xdata	ENDS
;	COMDAT xdata
xdata	SEGMENT
$chain$1$cg_reflect DD 021H
	DD	imagerel $LN99
	DD	imagerel $LN99+25
	DD	imagerel $unwind$cg_reflect
xdata	ENDS
;	COMDAT xdata
xdata	SEGMENT
$chain$0$cg_reflect DD 020421H
	DD	03404H
	DD	imagerel $LN99
	DD	imagerel $LN99+25
	DD	imagerel $unwind$cg_reflect
xdata	ENDS
;	COMDAT xdata
xdata	SEGMENT
$unwind$cg_reflect DD 010401H
	DD	0204H
xdata	ENDS
;	COMDAT xdata
xdata	SEGMENT
$chain$1$cg_lerp DD 021H
	DD	imagerel $LN84
	DD	imagerel $LN84+25
	DD	imagerel $unwind$cg_lerp
xdata	ENDS
;	COMDAT xdata
xdata	SEGMENT
$chain$0$cg_lerp DD 020421H
	DD	03404H
	DD	imagerel $LN84
	DD	imagerel $LN84+25
	DD	imagerel $unwind$cg_lerp
xdata	ENDS
;	COMDAT xdata
xdata	SEGMENT
$unwind$cg_lerp DD 010401H
	DD	0204H
xdata	ENDS
; Function compile flags: /Ogtpy
;	COMDAT ?set@detail@tnvx@@YA?AT__m128@@MMMM@Z
_TEXT	SEGMENT
a$ = 8
b$ = 16
c$ = 24
d$ = 32
?set@detail@tnvx@@YA?AT__m128@@MMMM@Z PROC		; tnvx::detail::set, COMDAT
; File C:\Users\artem.zyktin\projects\tenvex\src\tenvex\expressions\core\core_sse.h
; Line 21
	unpcklps xmm2, xmm3
	unpcklps xmm0, xmm1
	movlhps	xmm0, xmm2
; Line 22
	ret	0
?set@detail@tnvx@@YA?AT__m128@@MMMM@Z ENDP		; tnvx::detail::set
_TEXT	ENDS
; Function compile flags: /Ogtpy
;	COMDAT ?to_float@detail@tnvx@@YAMT__m128@@@Z
_TEXT	SEGMENT
v$ = 8
?to_float@detail@tnvx@@YAMT__m128@@@Z PROC		; tnvx::detail::to_float, COMDAT
; File C:\Users\artem.zyktin\projects\tenvex\src\tenvex\expressions\core\core_sse.h
; Line 39
	movss	xmm0, DWORD PTR [rcx]
; Line 40
	ret	0
?to_float@detail@tnvx@@YAMT__m128@@@Z ENDP		; tnvx::detail::to_float
_TEXT	ENDS
; Function compile flags: /Ogtpy
;	COMDAT ?scalar@detail@tnvx@@YA?AT__m128@@M@Z
_TEXT	SEGMENT
value$ = 8
?scalar@detail@tnvx@@YA?AT__m128@@M@Z PROC		; tnvx::detail::scalar, COMDAT
; File C:\Users\artem.zyktin\projects\tenvex\src\tenvex\expressions\core\core_sse.h
; Line 58
	shufps	xmm0, xmm0, 0
; Line 59
	ret	0
?scalar@detail@tnvx@@YA?AT__m128@@M@Z ENDP		; tnvx::detail::scalar
_TEXT	ENDS
; Function compile flags: /Ogtpy
;	COMDAT ?add@detail@tnvx@@YA?AT__m128@@T3@0@Z
_TEXT	SEGMENT
l$ = 8
r$ = 16
?add@detail@tnvx@@YA?AT__m128@@T3@0@Z PROC		; tnvx::detail::add, COMDAT
; File C:\Users\artem.zyktin\projects\tenvex\src\tenvex\expressions\core\core_sse.h
; Line 89
	movups	xmm0, XMMWORD PTR [rcx]
	addps	xmm0, XMMWORD PTR [rdx]
; Line 90
	ret	0
?add@detail@tnvx@@YA?AT__m128@@T3@0@Z ENDP		; tnvx::detail::add
_TEXT	ENDS
; Function compile flags: /Ogtpy
;	COMDAT ?sub@detail@tnvx@@YA?AT__m128@@T3@0@Z
_TEXT	SEGMENT
l$ = 8
r$ = 16
?sub@detail@tnvx@@YA?AT__m128@@T3@0@Z PROC		; tnvx::detail::sub, COMDAT
; File C:\Users\artem.zyktin\projects\tenvex\src\tenvex\expressions\core\core_sse.h
; Line 95
	movups	xmm0, XMMWORD PTR [rcx]
	subps	xmm0, XMMWORD PTR [rdx]
; Line 96
	ret	0
?sub@detail@tnvx@@YA?AT__m128@@T3@0@Z ENDP		; tnvx::detail::sub
_TEXT	ENDS
; Function compile flags: /Ogtpy
;	COMDAT ?mul@detail@tnvx@@YA?AT__m128@@T3@0@Z
_TEXT	SEGMENT
l$ = 8
r$ = 16
?mul@detail@tnvx@@YA?AT__m128@@T3@0@Z PROC		; tnvx::detail::mul, COMDAT
; File C:\Users\artem.zyktin\projects\tenvex\src\tenvex\expressions\core\core_sse.h
; Line 101
	movups	xmm0, XMMWORD PTR [rcx]
	mulps	xmm0, XMMWORD PTR [rdx]
; Line 102
	ret	0
?mul@detail@tnvx@@YA?AT__m128@@T3@0@Z ENDP		; tnvx::detail::mul
_TEXT	ENDS
; Function compile flags: /Ogtpy
;	COMDAT ?dot3@detail@tnvx@@YA?AT__m128@@T3@0@Z
_TEXT	SEGMENT
l$ = 8
r$ = 16
?dot3@detail@tnvx@@YA?AT__m128@@T3@0@Z PROC		; tnvx::detail::dot3, COMDAT
; File C:\Users\artem.zyktin\projects\tenvex\src\tenvex\expressions\core\core_sse.h
; Line 114
	movups	xmm2, XMMWORD PTR [rcx]
	mulps	xmm2, XMMWORD PTR [rdx]
; Line 116
	movaps	xmm0, xmm2
	movaps	xmm1, xmm2
	shufps	xmm1, xmm2, 85				; 00000055H
	addss	xmm0, xmm1
; Line 117
	movhlps	xmm2, xmm2
; Line 118
	addss	xmm0, xmm2
; Line 119
	shufps	xmm0, xmm0, 0
; Line 120
	ret	0
?dot3@detail@tnvx@@YA?AT__m128@@T3@0@Z ENDP		; tnvx::detail::dot3
_TEXT	ENDS
; Function compile flags: /Ogtpy
;	COMDAT ?dot4@detail@tnvx@@YA?AT__m128@@T3@0@Z
_TEXT	SEGMENT
l$ = 8
r$ = 16
?dot4@detail@tnvx@@YA?AT__m128@@T3@0@Z PROC		; tnvx::detail::dot4, COMDAT
; File C:\Users\artem.zyktin\projects\tenvex\src\tenvex\expressions\core\core_sse.h
; Line 125
	movups	xmm0, XMMWORD PTR [rcx]
	mulps	xmm0, XMMWORD PTR [rdx]
; Line 126
	haddps	xmm0, xmm0
; Line 127
	haddps	xmm0, xmm0
; Line 128
	ret	0
?dot4@detail@tnvx@@YA?AT__m128@@T3@0@Z ENDP		; tnvx::detail::dot4
_TEXT	ENDS
; Function compile flags: /Ogtpy
;	COMDAT ?magnitude3_sq@detail@tnvx@@YA?AT__m128@@T3@@Z
_TEXT	SEGMENT
v$ = 8
?magnitude3_sq@detail@tnvx@@YA?AT__m128@@T3@@Z PROC	; tnvx::detail::magnitude3_sq, COMDAT
; File C:\Users\artem.zyktin\projects\tenvex\src\tenvex\expressions\core\core_sse.h
; Line 139
	movups	xmm2, XMMWORD PTR [rcx]
; Line 114
	mulps	xmm2, xmm2
; Line 116
	movaps	xmm0, xmm2
	movaps	xmm1, xmm2
	shufps	xmm1, xmm2, 85				; 00000055H
	addss	xmm0, xmm1
; Line 117
	movhlps	xmm2, xmm2
; Line 118
	addss	xmm0, xmm2
; Line 119
	shufps	xmm0, xmm0, 0
; Line 140
	ret	0
?magnitude3_sq@detail@tnvx@@YA?AT__m128@@T3@@Z ENDP	; tnvx::detail::magnitude3_sq
_TEXT	ENDS
; Function compile flags: /Ogtpy
;	COMDAT ?magnitude4@detail@tnvx@@YA?AT__m128@@T3@@Z
_TEXT	SEGMENT
v$ = 8
?magnitude4@detail@tnvx@@YA?AT__m128@@T3@@Z PROC	; tnvx::detail::magnitude4, COMDAT
; File C:\Users\artem.zyktin\projects\tenvex\src\tenvex\expressions\core\core_sse.h
; Line 145
	movups	xmm0, XMMWORD PTR [rcx]
; Line 125
	mulps	xmm0, xmm0
; Line 126
	haddps	xmm0, xmm0
; Line 127
	haddps	xmm0, xmm0
; Line 145
	sqrtps	xmm0, xmm0
; Line 146
	ret	0
?magnitude4@detail@tnvx@@YA?AT__m128@@T3@@Z ENDP	; tnvx::detail::magnitude4
_TEXT	ENDS
; Function compile flags: /Ogtpy
;	COMDAT ?max@detail@tnvx@@YA?AT__m128@@T3@0@Z
_TEXT	SEGMENT
l$ = 8
r$ = 16
?max@detail@tnvx@@YA?AT__m128@@T3@0@Z PROC		; tnvx::detail::max, COMDAT
; File C:\Users\artem.zyktin\projects\tenvex\src\tenvex\expressions\core\core_sse.h
; Line 175
	movups	xmm0, XMMWORD PTR [rcx]
	maxps	xmm0, XMMWORD PTR [rdx]
; Line 176
	ret	0
?max@detail@tnvx@@YA?AT__m128@@T3@0@Z ENDP		; tnvx::detail::max
_TEXT	ENDS
; Function compile flags: /Ogtpy
;	COMDAT ?min@detail@tnvx@@YA?AT__m128@@T3@0@Z
_TEXT	SEGMENT
l$ = 8
r$ = 16
?min@detail@tnvx@@YA?AT__m128@@T3@0@Z PROC		; tnvx::detail::min, COMDAT
; File C:\Users\artem.zyktin\projects\tenvex\src\tenvex\expressions\core\core_sse.h
; Line 181
	movups	xmm0, XMMWORD PTR [rcx]
	minps	xmm0, XMMWORD PTR [rdx]
; Line 182
	ret	0
?min@detail@tnvx@@YA?AT__m128@@T3@0@Z ENDP		; tnvx::detail::min
_TEXT	ENDS
; Function compile flags: /Ogtpy
;	COMDAT ?normalize4@detail@tnvx@@YA?AT__m128@@T3@@Z
_TEXT	SEGMENT
q$ = 8
?normalize4@detail@tnvx@@YA?AT__m128@@T3@@Z PROC	; tnvx::detail::normalize4, COMDAT
; File C:\Users\artem.zyktin\projects\tenvex\src\tenvex\expressions\core\core_sse.h
; Line 279
	movups	xmm0, XMMWORD PTR [rcx]
; Line 125
	movaps	xmm1, xmm0
	mulps	xmm1, xmm0
; Line 126
	haddps	xmm1, xmm1
; Line 127
	haddps	xmm1, xmm1
; Line 145
	sqrtps	xmm1, xmm1
; Line 279
	divps	xmm0, xmm1
; Line 280
	ret	0
?normalize4@detail@tnvx@@YA?AT__m128@@T3@@Z ENDP	; tnvx::detail::normalize4
_TEXT	ENDS
; Function compile flags: /Ogtpy
;	COMDAT ??0Scalar@tnvx@@QEAA@M@Z
_TEXT	SEGMENT
this$ = 8
value$ = 16
??0Scalar@tnvx@@QEAA@M@Z PROC				; tnvx::Scalar::Scalar, COMDAT
; File C:\Users\artem.zyktin\projects\tenvex\src\tenvex\expressions\common\scalar_impl.hpp
; File C:\Users\artem.zyktin\projects\tenvex\src\tenvex\expressions\core\core_sse.h
; Line 58
	shufps	xmm1, xmm1, 0
; File C:\Users\artem.zyktin\projects\tenvex\src\tenvex\expressions\common\scalar_impl.hpp
; Line 12
	mov	rax, rcx
	movups	XMMWORD PTR [rcx], xmm1
	ret	0
??0Scalar@tnvx@@QEAA@M@Z ENDP				; tnvx::Scalar::Scalar
_TEXT	ENDS
; Function compile flags: /Ogtpy
;	COMDAT ?eval@Scalar@tnvx@@QEBA?AT__m128@@XZ
_TEXT	SEGMENT
this$ = 8
__$ReturnUdt$ = 16
?eval@Scalar@tnvx@@QEBA?AT__m128@@XZ PROC		; tnvx::Scalar::eval, COMDAT
; File C:\Users\artem.zyktin\projects\tenvex\src\tenvex\expressions\common\scalar_impl.hpp
; Line 17
	movups	xmm0, XMMWORD PTR [rcx]
	mov	rax, rdx
	movups	XMMWORD PTR [rdx], xmm0
; Line 18
	ret	0
?eval@Scalar@tnvx@@QEBA?AT__m128@@XZ ENDP		; tnvx::Scalar::eval
_TEXT	ENDS
; Function compile flags: /Ogtpy
;	COMDAT ??0vec4@tnvx@@QEAA@MMMM@Z
_TEXT	SEGMENT
this$ = 8
x$ = 16
y$ = 24
z$ = 32
w$ = 40
??0vec4@tnvx@@QEAA@MMMM@Z PROC				; tnvx::vec4::vec4, COMDAT
; File C:\Users\artem.zyktin\projects\tenvex\src\tenvex\expressions\vec\vec4_impl.hpp
; File C:\Users\artem.zyktin\projects\tenvex\src\tenvex\expressions\core\core_sse.h
; Line 21
	movss	xmm4, DWORD PTR w$[rsp]
; File C:\Users\artem.zyktin\projects\tenvex\src\tenvex\expressions\vec\vec4_impl.hpp
; Line 12
	mov	rax, rcx
; File C:\Users\artem.zyktin\projects\tenvex\src\tenvex\expressions\core\core_sse.h
; Line 21
	unpcklps xmm3, xmm4
	unpcklps xmm1, xmm2
	movlhps	xmm1, xmm3
; File C:\Users\artem.zyktin\projects\tenvex\src\tenvex\expressions\vec\vec4_impl.hpp
; Line 10
	movups	XMMWORD PTR [rcx], xmm1
; Line 12
	ret	0
??0vec4@tnvx@@QEAA@MMMM@Z ENDP				; tnvx::vec4::vec4
_TEXT	ENDS
; Function compile flags: /Ogtpy
;	COMDAT ?x@vec4@tnvx@@QEBAMXZ
_TEXT	SEGMENT
this$ = 8
?x@vec4@tnvx@@QEBAMXZ PROC				; tnvx::vec4::x, COMDAT
; File C:\Users\artem.zyktin\projects\tenvex\src\tenvex\expressions\vec\vec4_impl.hpp
; Line 77
	movss	xmm0, DWORD PTR [rcx]
; Line 78
	ret	0
?x@vec4@tnvx@@QEBAMXZ ENDP				; tnvx::vec4::x
_TEXT	ENDS
; Function compile flags: /Ogtpy
;	COMDAT ?y@vec4@tnvx@@QEBAMXZ
_TEXT	SEGMENT
this$ = 8
?y@vec4@tnvx@@QEBAMXZ PROC				; tnvx::vec4::y, COMDAT
; File C:\Users\artem.zyktin\projects\tenvex\src\tenvex\expressions\vec\vec4_impl.hpp
; File C:\Users\artem.zyktin\projects\tenvex\src\tenvex\expressions\core\core_sse.h
; Line 71
	movss	xmm0, DWORD PTR [rcx+4]
; File C:\Users\artem.zyktin\projects\tenvex\src\tenvex\expressions\vec\vec4_impl.hpp
; Line 84
	ret	0
?y@vec4@tnvx@@QEBAMXZ ENDP				; tnvx::vec4::y
_TEXT	ENDS
; Function compile flags: /Ogtpy
;	COMDAT ?z@vec4@tnvx@@QEBAMXZ
_TEXT	SEGMENT
this$ = 8
?z@vec4@tnvx@@QEBAMXZ PROC				; tnvx::vec4::z, COMDAT
; File C:\Users\artem.zyktin\projects\tenvex\src\tenvex\expressions\vec\vec4_impl.hpp
; File C:\Users\artem.zyktin\projects\tenvex\src\tenvex\expressions\core\core_sse.h
; Line 71
	movss	xmm0, DWORD PTR [rcx+8]
; File C:\Users\artem.zyktin\projects\tenvex\src\tenvex\expressions\vec\vec4_impl.hpp
; Line 90
	ret	0
?z@vec4@tnvx@@QEBAMXZ ENDP				; tnvx::vec4::z
_TEXT	ENDS
; Function compile flags: /Ogtpy
;	COMDAT ?eval@vec4@tnvx@@QEBA?AT__m128@@XZ
_TEXT	SEGMENT
this$ = 8
__$ReturnUdt$ = 16
?eval@vec4@tnvx@@QEBA?AT__m128@@XZ PROC			; tnvx::vec4::eval, COMDAT
; File C:\Users\artem.zyktin\projects\tenvex\src\tenvex\expressions\vec\vec4_impl.hpp
; Line 17
	movups	xmm0, XMMWORD PTR [rcx]
	mov	rax, rdx
	movups	XMMWORD PTR [rdx], xmm0
; Line 18
	ret	0
?eval@vec4@tnvx@@QEBA?AT__m128@@XZ ENDP			; tnvx::vec4::eval
_TEXT	ENDS
; Function compile flags: /Ogtpy
;	COMDAT ??$get_lane@$0A@@detail@tnvx@@YAMT__m128@@@Z
_TEXT	SEGMENT
v$ = 8
??$get_lane@$0A@@detail@tnvx@@YAMT__m128@@@Z PROC	; tnvx::detail::get_lane<0>, COMDAT
; File C:\Users\artem.zyktin\projects\tenvex\src\tenvex\expressions\core\core_sse.h
; Line 67
	movss	xmm0, DWORD PTR [rcx]
; Line 73
	ret	0
??$get_lane@$0A@@detail@tnvx@@YAMT__m128@@@Z ENDP	; tnvx::detail::get_lane<0>
_TEXT	ENDS
; Function compile flags: /Ogtpy
;	COMDAT ??$get_lane@$00@detail@tnvx@@YAMT__m128@@@Z
_TEXT	SEGMENT
v$ = 8
??$get_lane@$00@detail@tnvx@@YAMT__m128@@@Z PROC	; tnvx::detail::get_lane<1>, COMDAT
; File C:\Users\artem.zyktin\projects\tenvex\src\tenvex\expressions\core\core_sse.h
; Line 71
	movss	xmm0, DWORD PTR [rcx+4]
; Line 73
	ret	0
??$get_lane@$00@detail@tnvx@@YAMT__m128@@@Z ENDP	; tnvx::detail::get_lane<1>
_TEXT	ENDS
; Function compile flags: /Ogtpy
;	COMDAT ??$get_lane@$01@detail@tnvx@@YAMT__m128@@@Z
_TEXT	SEGMENT
v$ = 8
??$get_lane@$01@detail@tnvx@@YAMT__m128@@@Z PROC	; tnvx::detail::get_lane<2>, COMDAT
; File C:\Users\artem.zyktin\projects\tenvex\src\tenvex\expressions\core\core_sse.h
; Line 71
	movss	xmm0, DWORD PTR [rcx+8]
; Line 73
	ret	0
??$get_lane@$01@detail@tnvx@@YAMT__m128@@@Z ENDP	; tnvx::detail::get_lane<2>
_TEXT	ENDS
; Function compile flags: /Ogtpy
;	COMDAT ?orthogonal@tnvx@@YA?AUvec4@1@AEBU21@@Z
_TEXT	SEGMENT
__$ReturnUdt$ = 8
v$ = 16
?orthogonal@tnvx@@YA?AUvec4@1@AEBU21@@Z PROC		; tnvx::orthogonal, COMDAT
; File C:\Users\artem.zyktin\projects\tenvex\src\tenvex\expressions\vec\vec_operations_impl.hpp
; File C:\Users\artem.zyktin\projects\tenvex\src\tenvex\expressions\vec\vec4_impl.hpp
; Line 77
	movups	xmm5, XMMWORD PTR [rdx]
; File C:\Program Files (x86)\Windows Kits\10\include\10.0.26100.0\ucrt\corecrt_math.h
; Line 711
	movdqa	xmm1, XMMWORD PTR __xmm@7fffffff7fffffff7fffffff7fffffff
; File C:\Users\artem.zyktin\projects\tenvex\src\tenvex\expressions\core\core_sse.h
; Line 71
	movaps	xmm4, xmm5
	shufps	xmm4, xmm5, 2
; File C:\Program Files (x86)\Windows Kits\10\include\10.0.26100.0\ucrt\corecrt_math.h
; Line 711
	movaps	xmm2, xmm5
	andps	xmm2, xmm1
	movaps	xmm0, xmm4
	andps	xmm0, xmm1
; File C:\Users\artem.zyktin\projects\tenvex\src\tenvex\expressions\core\core_sse.h
; Line 71
	movaps	xmm3, xmm5
; File C:\Users\artem.zyktin\projects\tenvex\src\tenvex\expressions\vec\vec_operations_impl.hpp
; Line 74
	comiss	xmm2, xmm0
; File C:\Users\artem.zyktin\projects\tenvex\src\tenvex\expressions\core\core_sse.h
; Line 71
	shufps	xmm3, xmm5, 1
; File C:\Users\artem.zyktin\projects\tenvex\src\tenvex\expressions\vec\vec_operations_impl.hpp
; Line 74
	xorps	xmm1, xmm1
	jbe	SHORT $LN3@orthogonal
	xorps	xmm3, DWORD PTR __xmm@80000000800000008000000080000000
	xorps	xmm2, xmm2
	unpcklps xmm2, xmm1
	mov	rax, rcx
	unpcklps xmm3, xmm5
	movlhps	xmm3, xmm2
	movups	XMMWORD PTR [rcx], xmm3
; Line 75
	ret	0
$LN3@orthogonal:
; Line 74
	xorps	xmm4, DWORD PTR __xmm@80000000800000008000000080000000
; File C:\Users\artem.zyktin\projects\tenvex\src\tenvex\expressions\vec\vec4_impl.hpp
; Line 10
	movaps	xmm2, xmm3
	xorps	xmm3, xmm3
; File C:\Users\artem.zyktin\projects\tenvex\src\tenvex\expressions\vec\vec_operations_impl.hpp
; Line 74
	unpcklps xmm2, xmm1
	unpcklps xmm3, xmm4
	mov	rax, rcx
	movlhps	xmm3, xmm2
	movups	XMMWORD PTR [rcx], xmm3
; Line 75
	ret	0
?orthogonal@tnvx@@YA?AUvec4@1@AEBU21@@Z ENDP		; tnvx::orthogonal
_TEXT	ENDS
; Function compile flags: /Ogtpy
;	COMDAT fabsf
_TEXT	SEGMENT
_X$ = 8
fabsf	PROC						; COMDAT
; File C:\Program Files (x86)\Windows Kits\10\include\10.0.26100.0\ucrt\corecrt_math.h
; Line 711
	andps	xmm0, XMMWORD PTR __xmm@7fffffff7fffffff7fffffff7fffffff
; Line 712
	ret	0
fabsf	ENDP
_TEXT	ENDS
; Function compile flags: /Ogtpy
;	COMDAT ?fabs@@YAMM@Z
_TEXT	SEGMENT
_Xx$ = 8
?fabs@@YAMM@Z PROC					; fabs, COMDAT
; File C:\Program Files\Microsoft Visual Studio\18\Community\VC\Tools\MSVC\14.51.36231\include\cmath
; File C:\Program Files (x86)\Windows Kits\10\include\10.0.26100.0\ucrt\corecrt_math.h
; Line 711
	andps	xmm0, XMMWORD PTR __xmm@7fffffff7fffffff7fffffff7fffffff
; File C:\Program Files\Microsoft Visual Studio\18\Community\VC\Tools\MSVC\14.51.36231\include\cmath
; Line 118
	ret	0
?fabs@@YAMM@Z ENDP					; fabs
_TEXT	ENDS
; Function compile flags: /Ogtpy
;	COMDAT ?eval@quat@tnvx@@QEBA?AT__m128@@XZ
_TEXT	SEGMENT
this$ = 8
__$ReturnUdt$ = 16
?eval@quat@tnvx@@QEBA?AT__m128@@XZ PROC			; tnvx::quat::eval, COMDAT
; File C:\Users\artem.zyktin\projects\tenvex\src\tenvex\expressions\quat\quat_impl.hpp
; Line 26
	movups	xmm0, XMMWORD PTR [rcx]
	mov	rax, rdx
	movups	XMMWORD PTR [rdx], xmm0
; Line 27
	ret	0
?eval@quat@tnvx@@QEBA?AT__m128@@XZ ENDP			; tnvx::quat::eval
_TEXT	ENDS
; Function compile flags: /Ogtpy
;	COMDAT ??$dot3@Uvec4@tnvx@@U12@@tnvx@@YA?AU?$Dot3@Uvec4@tnvx@@U12@@0@AEBUvec4@0@0@Z
_TEXT	SEGMENT
__$ReturnUdt$ = 8
l$ = 16
r$ = 24
??$dot3@Uvec4@tnvx@@U12@@tnvx@@YA?AU?$Dot3@Uvec4@tnvx@@U12@@0@AEBUvec4@0@0@Z PROC ; tnvx::dot3<tnvx::vec4,tnvx::vec4>, COMDAT
; File C:\Users\artem.zyktin\projects\tenvex\src\tenvex\expressions\vec\dot3_impl.hpp
; Line 11
	movaps	xmm0, XMMWORD PTR [rdx]
; Line 34
	mov	rax, rcx
; Line 12
	movaps	xmm1, XMMWORD PTR [r8]
	movups	XMMWORD PTR [rcx], xmm0
	movups	XMMWORD PTR [rcx+16], xmm1
; Line 35
	ret	0
??$dot3@Uvec4@tnvx@@U12@@tnvx@@YA?AU?$Dot3@Uvec4@tnvx@@U12@@0@AEBUvec4@0@0@Z ENDP ; tnvx::dot3<tnvx::vec4,tnvx::vec4>
_TEXT	ENDS
; Function compile flags: /Ogtpy
;	COMDAT ??0?$Dot3@Uvec4@tnvx@@U12@@tnvx@@QEAA@AEIBUvec4@1@0@Z
_TEXT	SEGMENT
this$ = 8
l$ = 16
r$ = 24
??0?$Dot3@Uvec4@tnvx@@U12@@tnvx@@QEAA@AEIBUvec4@1@0@Z PROC ; tnvx::Dot3<tnvx::vec4,tnvx::vec4>::Dot3<tnvx::vec4,tnvx::vec4>, COMDAT
; File C:\Users\artem.zyktin\projects\tenvex\src\tenvex\expressions\vec\dot3_impl.hpp
; Line 11
	movaps	xmm0, XMMWORD PTR [rdx]
; Line 14
	mov	rax, rcx
	movaps	xmm1, XMMWORD PTR [r8]
	movups	XMMWORD PTR [rcx], xmm0
	movups	XMMWORD PTR [rcx+16], xmm1
	ret	0
??0?$Dot3@Uvec4@tnvx@@U12@@tnvx@@QEAA@AEIBUvec4@1@0@Z ENDP ; tnvx::Dot3<tnvx::vec4,tnvx::vec4>::Dot3<tnvx::vec4,tnvx::vec4>
_TEXT	ENDS
; Function compile flags: /Ogtpy
;	COMDAT ?eval@?$Dot3@Uvec4@tnvx@@U12@@tnvx@@QEBA?AT__m128@@XZ
_TEXT	SEGMENT
this$ = 8
__$ReturnUdt$ = 16
?eval@?$Dot3@Uvec4@tnvx@@U12@@tnvx@@QEBA?AT__m128@@XZ PROC ; tnvx::Dot3<tnvx::vec4,tnvx::vec4>::eval, COMDAT
; File C:\Users\artem.zyktin\projects\tenvex\src\tenvex\expressions\vec\dot3_impl.hpp
; File C:\Users\artem.zyktin\projects\tenvex\src\tenvex\expressions\core\core_sse.h
; Line 114
	movups	xmm2, XMMWORD PTR [rcx+16]
; File C:\Users\artem.zyktin\projects\tenvex\src\tenvex\expressions\vec\dot3_impl.hpp
; Line 20
	mov	rax, rdx
; File C:\Users\artem.zyktin\projects\tenvex\src\tenvex\expressions\core\core_sse.h
; Line 114
	mulps	xmm2, XMMWORD PTR [rcx]
; Line 116
	movaps	xmm1, xmm2
	movaps	xmm0, xmm2
	shufps	xmm0, xmm2, 85				; 00000055H
	addss	xmm1, xmm0
; Line 117
	movhlps	xmm2, xmm2
; Line 118
	addss	xmm1, xmm2
; Line 119
	shufps	xmm1, xmm1, 0
; File C:\Users\artem.zyktin\projects\tenvex\src\tenvex\expressions\vec\dot3_impl.hpp
; Line 20
	movups	XMMWORD PTR [rdx], xmm1
; Line 21
	ret	0
?eval@?$Dot3@Uvec4@tnvx@@U12@@tnvx@@QEBA?AT__m128@@XZ ENDP ; tnvx::Dot3<tnvx::vec4,tnvx::vec4>::eval
_TEXT	ENDS
; Function compile flags: /Ogtpy
;	COMDAT cg_lerp
_TEXT	SEGMENT
va$ = 16
vb$ = 24
t$ = 32
out$ = 40
n$ = 48
cg_lerp	PROC						; COMDAT
; File C:\Users\artem.zyktin\projects\tenvex\src\codegen\cg_composed.cpp
; Line 21
$LN84:
	sub	rsp, 8
	mov	r10, QWORD PTR n$[rsp]
	xor	r8d, r8d
; Line 22
	cmp	r10, 4
	jb	$LC74@cg_lerp
	movaps	xmm3, xmm2
	mov	QWORD PTR [rsp], rbx
	shufps	xmm3, xmm3, 0
	lea	rbx, QWORD PTR [r10-3]
	xor	r11d, r11d
	npad	8
$LL75@cg_lerp:
; Line 23
	mov	rax, r8
; File C:\Users\artem.zyktin\projects\tenvex\src\tenvex\expressions\core\core_sse.h
; Line 101
	movaps	xmm0, xmm3
; File C:\Users\artem.zyktin\projects\tenvex\src\codegen\cg_composed.cpp
; Line 23
	add	rax, rax
	add	r8, 4
; File C:\Users\artem.zyktin\projects\tenvex\src\tenvex\expressions\common\sub_impl.hpp
; Line 12
	movups	xmm1, XMMWORD PTR [rdx+rax*8]
; File C:\Users\artem.zyktin\projects\tenvex\src\tenvex\expressions\core\core_sse.h
; Line 95
	subps	xmm1, XMMWORD PTR [rcx+rax*8]
; Line 101
	mulps	xmm0, xmm1
; Line 89
	addps	xmm0, XMMWORD PTR [rcx+rax*8]
; File C:\Users\artem.zyktin\projects\tenvex\src\codegen\cg_composed.cpp
; Line 23
	movups	XMMWORD PTR [r9+rax*8], xmm0
; File C:\Users\artem.zyktin\projects\tenvex\src\tenvex\expressions\core\core_sse.h
; Line 101
	movaps	xmm0, xmm3
; File C:\Users\artem.zyktin\projects\tenvex\src\tenvex\expressions\common\sub_impl.hpp
; Line 12
	movups	xmm1, XMMWORD PTR [rdx+rax*8+16]
; File C:\Users\artem.zyktin\projects\tenvex\src\tenvex\expressions\core\core_sse.h
; Line 95
	subps	xmm1, XMMWORD PTR [rcx+rax*8+16]
; Line 101
	mulps	xmm0, xmm1
; Line 89
	addps	xmm0, XMMWORD PTR [rcx+rax*8+16]
; File C:\Users\artem.zyktin\projects\tenvex\src\codegen\cg_composed.cpp
; Line 23
	movups	XMMWORD PTR [r9+rax*8+16], xmm0
; File C:\Users\artem.zyktin\projects\tenvex\src\tenvex\expressions\core\core_sse.h
; Line 101
	movaps	xmm0, xmm3
; File C:\Users\artem.zyktin\projects\tenvex\src\tenvex\expressions\common\sub_impl.hpp
; Line 12
	movups	xmm1, XMMWORD PTR [r11+rdx+32]
; File C:\Users\artem.zyktin\projects\tenvex\src\tenvex\expressions\core\core_sse.h
; Line 95
	subps	xmm1, XMMWORD PTR [r11+rcx+32]
; Line 101
	mulps	xmm0, xmm1
; Line 89
	addps	xmm0, XMMWORD PTR [r11+rcx+32]
; File C:\Users\artem.zyktin\projects\tenvex\src\codegen\cg_composed.cpp
; Line 23
	movups	XMMWORD PTR [r11+r9+32], xmm0
; File C:\Users\artem.zyktin\projects\tenvex\src\tenvex\expressions\core\core_sse.h
; Line 101
	movaps	xmm0, xmm3
; File C:\Users\artem.zyktin\projects\tenvex\src\tenvex\expressions\common\sub_impl.hpp
; Line 12
	movups	xmm1, XMMWORD PTR [r11+rdx+48]
; File C:\Users\artem.zyktin\projects\tenvex\src\tenvex\expressions\core\core_sse.h
; Line 95
	subps	xmm1, XMMWORD PTR [r11+rcx+48]
; Line 101
	mulps	xmm0, xmm1
; Line 89
	addps	xmm0, XMMWORD PTR [r11+rcx+48]
; File C:\Users\artem.zyktin\projects\tenvex\src\codegen\cg_composed.cpp
; Line 23
	movups	XMMWORD PTR [r11+r9+48], xmm0
	add	r11, 64					; 00000040H
	cmp	r8, rbx
	jb	$LL75@cg_lerp
	mov	rbx, QWORD PTR [rsp]
$LC74@cg_lerp:
; Line 22
	cmp	r8, r10
	jae	SHORT $LN73@cg_lerp
	shufps	xmm2, xmm2, 0
$LC4@cg_lerp:
; Line 23
	mov	rax, r8
; File C:\Users\artem.zyktin\projects\tenvex\src\tenvex\expressions\core\core_sse.h
; Line 101
	movaps	xmm0, xmm2
; File C:\Users\artem.zyktin\projects\tenvex\src\codegen\cg_composed.cpp
; Line 23
	add	rax, rax
	inc	r8
; File C:\Users\artem.zyktin\projects\tenvex\src\tenvex\expressions\common\sub_impl.hpp
; Line 12
	movups	xmm1, XMMWORD PTR [rdx+rax*8]
; File C:\Users\artem.zyktin\projects\tenvex\src\tenvex\expressions\core\core_sse.h
; Line 95
	subps	xmm1, XMMWORD PTR [rcx+rax*8]
; Line 101
	mulps	xmm0, xmm1
; Line 89
	addps	xmm0, XMMWORD PTR [rcx+rax*8]
; File C:\Users\artem.zyktin\projects\tenvex\src\codegen\cg_composed.cpp
; Line 23
	movups	XMMWORD PTR [r9+rax*8], xmm0
	cmp	r8, r10
	jb	SHORT $LC4@cg_lerp
$LN73@cg_lerp:
; Line 24
	add	rsp, 8
	ret	0
cg_lerp	ENDP
_TEXT	ENDS
; Function compile flags: /Ogtpy
;	COMDAT ??$lerp@Uvec4@tnvx@@U12@@tnvx@@YA?AUvec4@0@AEBU10@0M@Z
_TEXT	SEGMENT
__$ReturnUdt$ = 8
a$ = 16
b$ = 24
t$ = 32
??$lerp@Uvec4@tnvx@@U12@@tnvx@@YA?AUvec4@0@AEBU10@0M@Z PROC ; tnvx::lerp<tnvx::vec4,tnvx::vec4>, COMDAT
; File C:\Users\artem.zyktin\projects\tenvex\src\tenvex\expressions\vec\vec_operations_impl.hpp
; File C:\Users\artem.zyktin\projects\tenvex\src\tenvex\expressions\common\sub_impl.hpp
; Line 12
	movups	xmm0, XMMWORD PTR [r8]
; File C:\Users\artem.zyktin\projects\tenvex\src\tenvex\expressions\vec\vec_operations_impl.hpp
; Line 43
	mov	rax, rcx
; File C:\Users\artem.zyktin\projects\tenvex\src\tenvex\expressions\core\core_sse.h
; Line 95
	subps	xmm0, XMMWORD PTR [rdx]
; Line 58
	shufps	xmm3, xmm3, 0
; Line 101
	mulps	xmm3, xmm0
; Line 89
	addps	xmm3, XMMWORD PTR [rdx]
; File C:\Users\artem.zyktin\projects\tenvex\src\tenvex\expressions\common\add_impl.hpp
; Line 22
	movups	XMMWORD PTR [rcx], xmm3
; File C:\Users\artem.zyktin\projects\tenvex\src\tenvex\expressions\vec\vec_operations_impl.hpp
; Line 44
	ret	0
??$lerp@Uvec4@tnvx@@U12@@tnvx@@YA?AUvec4@0@AEBU10@0M@Z ENDP ; tnvx::lerp<tnvx::vec4,tnvx::vec4>
_TEXT	ENDS
; Function compile flags: /Ogtpy
;	COMDAT cg_clamp
_TEXT	SEGMENT
va$ = 8
vlo$ = 16
vhi$ = 24
out$ = 32
n$ = 40
cg_clamp PROC						; COMDAT
; File C:\Users\artem.zyktin\projects\tenvex\src\codegen\cg_composed.cpp
; Line 29
	mov	r10, QWORD PTR n$[rsp]
	xor	eax, eax
	mov	r11, rcx
	test	r10, r10
	je	SHORT $LN3@cg_clamp
	npad	1
$LL4@cg_clamp:
; Line 30
	mov	rcx, rax
	inc	rax
	add	rcx, rcx
; File C:\Users\artem.zyktin\projects\tenvex\src\tenvex\expressions\vec\max_impl.hpp
; Line 11
	movups	xmm0, XMMWORD PTR [r11+rcx*8]
; File C:\Users\artem.zyktin\projects\tenvex\src\tenvex\expressions\core\core_sse.h
; Line 175
	maxps	xmm0, XMMWORD PTR [rdx+rcx*8]
; Line 181
	minps	xmm0, XMMWORD PTR [r8+rcx*8]
; File C:\Users\artem.zyktin\projects\tenvex\src\codegen\cg_composed.cpp
; Line 30
	movups	XMMWORD PTR [r9+rcx*8], xmm0
	cmp	rax, r10
	jb	SHORT $LL4@cg_clamp
$LN3@cg_clamp:
; Line 31
	ret	0
cg_clamp ENDP
_TEXT	ENDS
; Function compile flags: /Ogtpy
;	COMDAT ??$clamp@Uvec4@tnvx@@U12@U12@@tnvx@@YA?AUvec4@0@AEBU10@00@Z
_TEXT	SEGMENT
__$ReturnUdt$ = 8
v$ = 16
lo$ = 24
hi$ = 32
??$clamp@Uvec4@tnvx@@U12@U12@@tnvx@@YA?AUvec4@0@AEBU10@00@Z PROC ; tnvx::clamp<tnvx::vec4,tnvx::vec4,tnvx::vec4>, COMDAT
; File C:\Users\artem.zyktin\projects\tenvex\src\tenvex\expressions\vec\vec_operations_impl.hpp
; File C:\Users\artem.zyktin\projects\tenvex\src\tenvex\expressions\vec\max_impl.hpp
; Line 11
	movups	xmm0, XMMWORD PTR [rdx]
; File C:\Users\artem.zyktin\projects\tenvex\src\tenvex\expressions\vec\vec_operations_impl.hpp
; Line 22
	mov	rax, rcx
; File C:\Users\artem.zyktin\projects\tenvex\src\tenvex\expressions\core\core_sse.h
; Line 175
	maxps	xmm0, XMMWORD PTR [r8]
; Line 181
	minps	xmm0, XMMWORD PTR [r9]
; File C:\Users\artem.zyktin\projects\tenvex\src\tenvex\expressions\vec\min_impl.hpp
; Line 20
	movups	XMMWORD PTR [rcx], xmm0
; File C:\Users\artem.zyktin\projects\tenvex\src\tenvex\expressions\vec\vec_operations_impl.hpp
; Line 23
	ret	0
??$clamp@Uvec4@tnvx@@U12@U12@@tnvx@@YA?AUvec4@0@AEBU10@00@Z ENDP ; tnvx::clamp<tnvx::vec4,tnvx::vec4,tnvx::vec4>
_TEXT	ENDS
; Function compile flags: /Ogtpy
;	COMDAT cg_reflect
_TEXT	SEGMENT
va$ = 16
vn$ = 24
out$ = 32
n$ = 40
cg_reflect PROC						; COMDAT
; File C:\Users\artem.zyktin\projects\tenvex\src\codegen\cg_composed.cpp
; Line 35
$LN99:
	sub	rsp, 8
; Line 36
	movdqa	xmm5, XMMWORD PTR __xmm@40000000400000004000000040000000
	xor	r10d, r10d
	cmp	r9, 4
	jb	$LC89@cg_reflect
	mov	QWORD PTR [rsp], rbx
	xor	r11d, r11d
	lea	rbx, QWORD PTR [r9-3]
	npad	12
$LL90@cg_reflect:
; Line 37
	mov	rax, r10
	add	r10, 4
	add	rax, rax
; File C:\Users\artem.zyktin\projects\tenvex\src\tenvex\expressions\vec\dot3_impl.hpp
; Line 12
	movups	xmm2, XMMWORD PTR [rdx+rax*8]
; File C:\Users\artem.zyktin\projects\tenvex\src\tenvex\expressions\common\sub_impl.hpp
; Line 12
	movups	xmm3, XMMWORD PTR [rcx+rax*8]
; File C:\Users\artem.zyktin\projects\tenvex\src\tenvex\expressions\common\mul_impl.hpp
; Line 12
	movaps	xmm4, xmm2
; File C:\Users\artem.zyktin\projects\tenvex\src\tenvex\expressions\core\core_sse.h
; Line 114
	mulps	xmm2, xmm3
; Line 116
	movaps	xmm1, xmm2
	movaps	xmm0, xmm2
	shufps	xmm0, xmm2, 85				; 00000055H
	addss	xmm1, xmm0
; Line 117
	movhlps	xmm2, xmm2
; Line 101
	movaps	xmm0, xmm5
; Line 118
	addss	xmm1, xmm2
; Line 119
	shufps	xmm1, xmm1, 0
; Line 101
	mulps	xmm0, xmm1
	mulps	xmm4, xmm0
; Line 95
	subps	xmm3, xmm4
; File C:\Users\artem.zyktin\projects\tenvex\src\codegen\cg_composed.cpp
; Line 37
	movups	XMMWORD PTR [r8+rax*8], xmm3
; File C:\Users\artem.zyktin\projects\tenvex\src\tenvex\expressions\vec\dot3_impl.hpp
; Line 12
	movups	xmm2, XMMWORD PTR [rdx+rax*8+16]
; File C:\Users\artem.zyktin\projects\tenvex\src\tenvex\expressions\common\sub_impl.hpp
; Line 12
	movups	xmm3, XMMWORD PTR [rcx+rax*8+16]
; File C:\Users\artem.zyktin\projects\tenvex\src\tenvex\expressions\common\mul_impl.hpp
; Line 12
	movaps	xmm4, xmm2
; File C:\Users\artem.zyktin\projects\tenvex\src\tenvex\expressions\core\core_sse.h
; Line 114
	mulps	xmm2, xmm3
; Line 116
	movaps	xmm1, xmm2
	movaps	xmm0, xmm2
	shufps	xmm0, xmm2, 85				; 00000055H
	addss	xmm1, xmm0
; Line 117
	movhlps	xmm2, xmm2
; Line 101
	movaps	xmm0, xmm5
; Line 118
	addss	xmm1, xmm2
; Line 119
	shufps	xmm1, xmm1, 0
; Line 101
	mulps	xmm0, xmm1
	mulps	xmm4, xmm0
; Line 95
	subps	xmm3, xmm4
; File C:\Users\artem.zyktin\projects\tenvex\src\codegen\cg_composed.cpp
; Line 37
	movups	XMMWORD PTR [r8+rax*8+16], xmm3
; File C:\Users\artem.zyktin\projects\tenvex\src\tenvex\expressions\vec\dot3_impl.hpp
; Line 12
	movups	xmm2, XMMWORD PTR [r11+rdx+32]
; File C:\Users\artem.zyktin\projects\tenvex\src\tenvex\expressions\common\sub_impl.hpp
; Line 12
	movups	xmm3, XMMWORD PTR [r11+rcx+32]
; File C:\Users\artem.zyktin\projects\tenvex\src\tenvex\expressions\common\mul_impl.hpp
; Line 12
	movaps	xmm4, xmm2
; File C:\Users\artem.zyktin\projects\tenvex\src\tenvex\expressions\core\core_sse.h
; Line 114
	mulps	xmm2, xmm3
; Line 116
	movaps	xmm1, xmm2
	movaps	xmm0, xmm2
	shufps	xmm0, xmm2, 85				; 00000055H
	addss	xmm1, xmm0
; Line 117
	movhlps	xmm2, xmm2
; Line 101
	movaps	xmm0, xmm5
; Line 118
	addss	xmm1, xmm2
; Line 119
	shufps	xmm1, xmm1, 0
; Line 101
	mulps	xmm0, xmm1
	mulps	xmm4, xmm0
; Line 95
	subps	xmm3, xmm4
; File C:\Users\artem.zyktin\projects\tenvex\src\codegen\cg_composed.cpp
; Line 37
	movups	XMMWORD PTR [r11+r8+32], xmm3
; File C:\Users\artem.zyktin\projects\tenvex\src\tenvex\expressions\vec\dot3_impl.hpp
; Line 12
	movups	xmm2, XMMWORD PTR [r11+rdx+48]
; File C:\Users\artem.zyktin\projects\tenvex\src\tenvex\expressions\common\sub_impl.hpp
; Line 12
	movups	xmm3, XMMWORD PTR [r11+rcx+48]
; File C:\Users\artem.zyktin\projects\tenvex\src\tenvex\expressions\common\mul_impl.hpp
; Line 12
	movaps	xmm4, xmm2
; File C:\Users\artem.zyktin\projects\tenvex\src\tenvex\expressions\core\core_sse.h
; Line 114
	mulps	xmm2, xmm3
; Line 116
	movaps	xmm1, xmm2
	movaps	xmm0, xmm2
	shufps	xmm0, xmm2, 85				; 00000055H
	addss	xmm1, xmm0
; Line 117
	movhlps	xmm2, xmm2
; Line 101
	movaps	xmm0, xmm5
; Line 118
	addss	xmm1, xmm2
; Line 119
	shufps	xmm1, xmm1, 0
; Line 101
	mulps	xmm0, xmm1
	mulps	xmm4, xmm0
; Line 95
	subps	xmm3, xmm4
; File C:\Users\artem.zyktin\projects\tenvex\src\codegen\cg_composed.cpp
; Line 37
	movups	XMMWORD PTR [r11+r8+48], xmm3
	add	r11, 64					; 00000040H
	cmp	r10, rbx
	jb	$LL90@cg_reflect
	mov	rbx, QWORD PTR [rsp]
$LC89@cg_reflect:
; Line 36
	cmp	r10, r9
	jae	SHORT $LN88@cg_reflect
$LC4@cg_reflect:
; Line 37
	mov	rax, r10
	inc	r10
	add	rax, rax
; File C:\Users\artem.zyktin\projects\tenvex\src\tenvex\expressions\vec\dot3_impl.hpp
; Line 12
	movups	xmm2, XMMWORD PTR [rdx+rax*8]
; File C:\Users\artem.zyktin\projects\tenvex\src\tenvex\expressions\common\sub_impl.hpp
; Line 12
	movups	xmm3, XMMWORD PTR [rcx+rax*8]
; File C:\Users\artem.zyktin\projects\tenvex\src\tenvex\expressions\common\mul_impl.hpp
; Line 12
	movaps	xmm4, xmm2
; File C:\Users\artem.zyktin\projects\tenvex\src\tenvex\expressions\core\core_sse.h
; Line 114
	mulps	xmm2, xmm3
; Line 116
	movaps	xmm1, xmm2
	movaps	xmm0, xmm2
	shufps	xmm0, xmm2, 85				; 00000055H
; Line 117
	movhlps	xmm2, xmm2
	addss	xmm1, xmm0
; Line 101
	movaps	xmm0, xmm5
; Line 118
	addss	xmm1, xmm2
; Line 119
	shufps	xmm1, xmm1, 0
; Line 101
	mulps	xmm0, xmm1
	mulps	xmm4, xmm0
; Line 95
	subps	xmm3, xmm4
; File C:\Users\artem.zyktin\projects\tenvex\src\codegen\cg_composed.cpp
; Line 37
	movups	XMMWORD PTR [r8+rax*8], xmm3
	cmp	r10, r9
	jb	SHORT $LC4@cg_reflect
$LN88@cg_reflect:
; Line 38
	add	rsp, 8
	ret	0
cg_reflect ENDP
_TEXT	ENDS
; Function compile flags: /Ogtpy
;	COMDAT ??$reflect@Uvec4@tnvx@@U12@@tnvx@@YA?AUvec4@0@AEBU10@0@Z
_TEXT	SEGMENT
__$ReturnUdt$ = 8
v$ = 16
n$ = 24
??$reflect@Uvec4@tnvx@@U12@@tnvx@@YA?AUvec4@0@AEBU10@0@Z PROC ; tnvx::reflect<tnvx::vec4,tnvx::vec4>, COMDAT
; File C:\Users\artem.zyktin\projects\tenvex\src\tenvex\expressions\vec\vec_operations_impl.hpp
; File C:\Users\artem.zyktin\projects\tenvex\src\tenvex\expressions\vec\dot3_impl.hpp
; Line 12
	movups	xmm2, XMMWORD PTR [r8]
; File C:\Users\artem.zyktin\projects\tenvex\src\tenvex\expressions\vec\vec_operations_impl.hpp
; Line 64
	mov	rax, rcx
; File C:\Users\artem.zyktin\projects\tenvex\src\tenvex\expressions\common\sub_impl.hpp
; Line 12
	movups	xmm3, XMMWORD PTR [rdx]
; File C:\Users\artem.zyktin\projects\tenvex\src\tenvex\expressions\common\mul_impl.hpp
; Line 12
	movaps	xmm4, xmm2
; File C:\Users\artem.zyktin\projects\tenvex\src\tenvex\expressions\core\core_sse.h
; Line 114
	mulps	xmm2, xmm3
; Line 115
	movaps	xmm0, xmm2
; Line 117
	movaps	xmm1, xmm2
	shufps	xmm0, xmm2, 85				; 00000055H
	addss	xmm2, xmm0
	movhlps	xmm1, xmm2
; Line 58
	movdqa	xmm0, XMMWORD PTR __xmm@40000000400000004000000040000000
; Line 118
	addss	xmm2, xmm1
; Line 119
	shufps	xmm2, xmm2, 0
; Line 101
	mulps	xmm0, xmm2
	mulps	xmm4, xmm0
; Line 95
	subps	xmm3, xmm4
; File C:\Users\artem.zyktin\projects\tenvex\src\tenvex\expressions\common\sub_impl.hpp
; Line 22
	movups	XMMWORD PTR [rcx], xmm3
; File C:\Users\artem.zyktin\projects\tenvex\src\tenvex\expressions\vec\vec_operations_impl.hpp
; Line 65
	ret	0
??$reflect@Uvec4@tnvx@@U12@@tnvx@@YA?AUvec4@0@AEBU10@0@Z ENDP ; tnvx::reflect<tnvx::vec4,tnvx::vec4>
_TEXT	ENDS
; Function compile flags: /Ogtpy
;	COMDAT cg_distance3_sq
_TEXT	SEGMENT
va$ = 16
vb$ = 24
out$ = 32
n$ = 40
cg_distance3_sq PROC					; COMDAT
; File C:\Users\artem.zyktin\projects\tenvex\src\codegen\cg_composed.cpp
; Line 42
$LN62:
	sub	rsp, 8
	xor	r10d, r10d
; Line 43
	cmp	r9, 4
	jb	$LC52@cg_distanc
	mov	QWORD PTR [rsp], rbx
	xor	r11d, r11d
	lea	rbx, QWORD PTR [r9-3]
	npad	4
$LL53@cg_distanc:
; Line 44
	mov	rax, r10
	add	rax, rax
; File C:\Users\artem.zyktin\projects\tenvex\src\tenvex\expressions\common\sub_impl.hpp
; Line 12
	movups	xmm2, XMMWORD PTR [rcx+rax*8]
; File C:\Users\artem.zyktin\projects\tenvex\src\tenvex\expressions\core\core_sse.h
; Line 95
	subps	xmm2, XMMWORD PTR [rdx+rax*8]
; Line 114
	mulps	xmm2, xmm2
; Line 116
	movaps	xmm1, xmm2
	movaps	xmm0, xmm2
	shufps	xmm0, xmm2, 85				; 00000055H
	addss	xmm1, xmm0
; Line 117
	movhlps	xmm2, xmm2
; Line 118
	addss	xmm1, xmm2
; File C:\Users\artem.zyktin\projects\tenvex\src\codegen\cg_composed.cpp
; Line 44
	movss	DWORD PTR [r8+r10*4], xmm1
; File C:\Users\artem.zyktin\projects\tenvex\src\tenvex\expressions\common\sub_impl.hpp
; Line 12
	movups	xmm2, XMMWORD PTR [rcx+rax*8+16]
; File C:\Users\artem.zyktin\projects\tenvex\src\tenvex\expressions\core\core_sse.h
; Line 95
	subps	xmm2, XMMWORD PTR [rdx+rax*8+16]
; Line 114
	mulps	xmm2, xmm2
; Line 116
	movaps	xmm1, xmm2
	movaps	xmm0, xmm2
	shufps	xmm0, xmm2, 85				; 00000055H
	addss	xmm1, xmm0
; Line 117
	movhlps	xmm2, xmm2
; Line 118
	addss	xmm1, xmm2
; File C:\Users\artem.zyktin\projects\tenvex\src\codegen\cg_composed.cpp
; Line 44
	movss	DWORD PTR [r8+r10*4+4], xmm1
; File C:\Users\artem.zyktin\projects\tenvex\src\tenvex\expressions\common\sub_impl.hpp
; Line 12
	movups	xmm2, XMMWORD PTR [r11+rcx+32]
; File C:\Users\artem.zyktin\projects\tenvex\src\tenvex\expressions\core\core_sse.h
; Line 95
	subps	xmm2, XMMWORD PTR [r11+rdx+32]
; Line 114
	mulps	xmm2, xmm2
; Line 116
	movaps	xmm1, xmm2
	movaps	xmm0, xmm2
	shufps	xmm0, xmm2, 85				; 00000055H
	addss	xmm1, xmm0
; Line 117
	movhlps	xmm2, xmm2
; Line 118
	addss	xmm1, xmm2
; File C:\Users\artem.zyktin\projects\tenvex\src\codegen\cg_composed.cpp
; Line 44
	movss	DWORD PTR [r8+r10*4+8], xmm1
; File C:\Users\artem.zyktin\projects\tenvex\src\tenvex\expressions\common\sub_impl.hpp
; Line 12
	movups	xmm2, XMMWORD PTR [r11+rcx+48]
; File C:\Users\artem.zyktin\projects\tenvex\src\tenvex\expressions\core\core_sse.h
; Line 95
	subps	xmm2, XMMWORD PTR [r11+rdx+48]
; File C:\Users\artem.zyktin\projects\tenvex\src\codegen\cg_composed.cpp
; Line 44
	add	r11, 64					; 00000040H
; File C:\Users\artem.zyktin\projects\tenvex\src\tenvex\expressions\core\core_sse.h
; Line 114
	mulps	xmm2, xmm2
; Line 115
	movaps	xmm0, xmm2
; Line 116
	movaps	xmm1, xmm2
	shufps	xmm0, xmm2, 85				; 00000055H
	addss	xmm1, xmm0
; Line 117
	movhlps	xmm2, xmm2
; Line 118
	addss	xmm1, xmm2
; File C:\Users\artem.zyktin\projects\tenvex\src\codegen\cg_composed.cpp
; Line 44
	movss	DWORD PTR [r8+r10*4+12], xmm1
	add	r10, 4
	cmp	r10, rbx
	jb	$LL53@cg_distanc
	mov	rbx, QWORD PTR [rsp]
$LC52@cg_distanc:
; Line 43
	cmp	r10, r9
	jae	SHORT $LN51@cg_distanc
$LC4@cg_distanc:
; Line 44
	mov	rax, r10
	add	rax, rax
; File C:\Users\artem.zyktin\projects\tenvex\src\tenvex\expressions\common\sub_impl.hpp
; Line 12
	movups	xmm2, XMMWORD PTR [rcx+rax*8]
; File C:\Users\artem.zyktin\projects\tenvex\src\tenvex\expressions\core\core_sse.h
; Line 95
	subps	xmm2, XMMWORD PTR [rdx+rax*8]
; Line 114
	mulps	xmm2, xmm2
; Line 115
	movaps	xmm0, xmm2
; Line 116
	movaps	xmm1, xmm2
	shufps	xmm0, xmm2, 85				; 00000055H
	addss	xmm1, xmm0
; Line 117
	movhlps	xmm2, xmm2
; Line 118
	addss	xmm1, xmm2
; File C:\Users\artem.zyktin\projects\tenvex\src\codegen\cg_composed.cpp
; Line 44
	movss	DWORD PTR [r8+r10*4], xmm1
	inc	r10
	cmp	r10, r9
	jb	SHORT $LC4@cg_distanc
$LN51@cg_distanc:
; Line 45
	add	rsp, 8
	ret	0
cg_distance3_sq ENDP
_TEXT	ENDS
; Function compile flags: /Ogtpy
;	COMDAT ??$distance3_sq@Uvec4@tnvx@@U12@@tnvx@@YAMAEBUvec4@0@0@Z
_TEXT	SEGMENT
l$ = 8
r$ = 16
??$distance3_sq@Uvec4@tnvx@@U12@@tnvx@@YAMAEBUvec4@0@0@Z PROC ; tnvx::distance3_sq<tnvx::vec4,tnvx::vec4>, COMDAT
; File C:\Users\artem.zyktin\projects\tenvex\src\tenvex\expressions\vec\vec_operations_impl.hpp
; File C:\Users\artem.zyktin\projects\tenvex\src\tenvex\expressions\common\sub_impl.hpp
; Line 12
	movups	xmm2, XMMWORD PTR [rcx]
; File C:\Users\artem.zyktin\projects\tenvex\src\tenvex\expressions\core\core_sse.h
; Line 95
	subps	xmm2, XMMWORD PTR [rdx]
; Line 114
	mulps	xmm2, xmm2
; Line 115
	movaps	xmm1, xmm2
; Line 116
	movaps	xmm0, xmm2
	shufps	xmm1, xmm2, 85				; 00000055H
	addss	xmm0, xmm1
; Line 117
	movhlps	xmm2, xmm2
; Line 118
	addss	xmm0, xmm2
; File C:\Users\artem.zyktin\projects\tenvex\src\tenvex\expressions\vec\vec_operations_impl.hpp
; Line 58
	ret	0
??$distance3_sq@Uvec4@tnvx@@U12@@tnvx@@YAMAEBUvec4@0@0@Z ENDP ; tnvx::distance3_sq<tnvx::vec4,tnvx::vec4>
_TEXT	ENDS
; Function compile flags: /Ogtpy
;	COMDAT cg_orthogonal
_TEXT	SEGMENT
va$ = 32
out$ = 40
n$ = 48
cg_orthogonal PROC					; COMDAT
; File C:\Users\artem.zyktin\projects\tenvex\src\codegen\cg_composed.cpp
; Line 48
$LN79:
	sub	rsp, 24
; Line 49
	movss	xmm4, DWORD PTR __xmm@80000000800000008000000080000000
	xor	eax, eax
	movaps	XMMWORD PTR [rsp], xmm6
	mov	r9, rcx
	movdqa	xmm6, XMMWORD PTR __xmm@7fffffff7fffffff7fffffff7fffffff
	cmp	r8, 4
	jb	$LC56@cg_orthogo
	lea	r10, QWORD PTR [r8-3]
	npad	5
$LL65@cg_orthogo:
; Line 50
	mov	rcx, rax
	add	rcx, rcx
; File C:\Users\artem.zyktin\projects\tenvex\src\tenvex\expressions\vec\vec4_impl.hpp
; Line 77
	movups	xmm5, XMMWORD PTR [r9+rcx*8]
; File C:\Users\artem.zyktin\projects\tenvex\src\tenvex\expressions\core\core_sse.h
; Line 71
	movaps	xmm3, xmm5
; File C:\Program Files (x86)\Windows Kits\10\include\10.0.26100.0\ucrt\corecrt_math.h
; Line 711
	movaps	xmm1, xmm5
	andps	xmm1, xmm6
; File C:\Users\artem.zyktin\projects\tenvex\src\tenvex\expressions\core\core_sse.h
; Line 71
	shufps	xmm3, xmm5, 2
; File C:\Program Files (x86)\Windows Kits\10\include\10.0.26100.0\ucrt\corecrt_math.h
; Line 711
	movaps	xmm0, xmm3
; File C:\Users\artem.zyktin\projects\tenvex\src\tenvex\expressions\core\core_sse.h
; Line 71
	movaps	xmm2, xmm5
; File C:\Program Files (x86)\Windows Kits\10\include\10.0.26100.0\ucrt\corecrt_math.h
; Line 711
	andps	xmm0, xmm6
; File C:\Users\artem.zyktin\projects\tenvex\src\tenvex\expressions\core\core_sse.h
; Line 71
	shufps	xmm2, xmm5, 1
; File C:\Users\artem.zyktin\projects\tenvex\src\tenvex\expressions\vec\vec_operations_impl.hpp
; Line 74
	comiss	xmm1, xmm0
	xorps	xmm1, xmm1
	jbe	SHORT $LN57@cg_orthogo
	xorps	xmm2, xmm4
; File C:\Users\artem.zyktin\projects\tenvex\src\tenvex\expressions\core\core_sse.h
; Line 21
	movaps	xmm3, xmm2
	unpcklps xmm3, xmm5
	movlhps	xmm3, xmm1
; File C:\Users\artem.zyktin\projects\tenvex\src\tenvex\expressions\vec\vec_operations_impl.hpp
; Line 74
	jmp	SHORT $LN58@cg_orthogo
$LN57@cg_orthogo:
	xorps	xmm3, xmm4
; File C:\Users\artem.zyktin\projects\tenvex\src\tenvex\expressions\core\core_sse.h
; Line 21
	unpcklps xmm2, xmm1
	movaps	xmm0, xmm3
	xorps	xmm3, xmm3
	unpcklps xmm3, xmm0
	movlhps	xmm3, xmm2
$LN58@cg_orthogo:
; File C:\Users\artem.zyktin\projects\tenvex\src\codegen\cg_composed.cpp
; Line 50
	movups	XMMWORD PTR [rdx+rcx*8], xmm3
; File C:\Users\artem.zyktin\projects\tenvex\src\tenvex\expressions\vec\vec4_impl.hpp
; Line 77
	movups	xmm5, XMMWORD PTR [r9+rcx*8+16]
; File C:\Users\artem.zyktin\projects\tenvex\src\tenvex\expressions\core\core_sse.h
; Line 71
	movaps	xmm3, xmm5
; File C:\Program Files (x86)\Windows Kits\10\include\10.0.26100.0\ucrt\corecrt_math.h
; Line 711
	movaps	xmm1, xmm5
	andps	xmm1, xmm6
; File C:\Users\artem.zyktin\projects\tenvex\src\tenvex\expressions\core\core_sse.h
; Line 71
	shufps	xmm3, xmm5, 2
; File C:\Program Files (x86)\Windows Kits\10\include\10.0.26100.0\ucrt\corecrt_math.h
; Line 711
	movaps	xmm0, xmm3
; File C:\Users\artem.zyktin\projects\tenvex\src\tenvex\expressions\core\core_sse.h
; Line 71
	movaps	xmm2, xmm5
; File C:\Program Files (x86)\Windows Kits\10\include\10.0.26100.0\ucrt\corecrt_math.h
; Line 711
	andps	xmm0, xmm6
; File C:\Users\artem.zyktin\projects\tenvex\src\tenvex\expressions\core\core_sse.h
; Line 71
	shufps	xmm2, xmm5, 1
; File C:\Users\artem.zyktin\projects\tenvex\src\tenvex\expressions\vec\vec_operations_impl.hpp
; Line 74
	comiss	xmm1, xmm0
	xorps	xmm1, xmm1
	jbe	SHORT $LN59@cg_orthogo
	xorps	xmm2, xmm4
; File C:\Users\artem.zyktin\projects\tenvex\src\tenvex\expressions\core\core_sse.h
; Line 21
	movaps	xmm3, xmm2
	unpcklps xmm3, xmm5
	movlhps	xmm3, xmm1
; File C:\Users\artem.zyktin\projects\tenvex\src\tenvex\expressions\vec\vec_operations_impl.hpp
; Line 74
	jmp	SHORT $LN60@cg_orthogo
$LN59@cg_orthogo:
	xorps	xmm3, xmm4
; File C:\Users\artem.zyktin\projects\tenvex\src\tenvex\expressions\core\core_sse.h
; Line 21
	unpcklps xmm2, xmm1
	movaps	xmm0, xmm3
	xorps	xmm3, xmm3
	unpcklps xmm3, xmm0
	movlhps	xmm3, xmm2
$LN60@cg_orthogo:
; File C:\Users\artem.zyktin\projects\tenvex\src\codegen\cg_composed.cpp
; Line 50
	movups	XMMWORD PTR [rdx+rcx*8+16], xmm3
; File C:\Users\artem.zyktin\projects\tenvex\src\tenvex\expressions\vec\vec4_impl.hpp
; Line 77
	movups	xmm5, XMMWORD PTR [r9+rcx*8+32]
; File C:\Users\artem.zyktin\projects\tenvex\src\tenvex\expressions\core\core_sse.h
; Line 71
	movaps	xmm3, xmm5
; File C:\Program Files (x86)\Windows Kits\10\include\10.0.26100.0\ucrt\corecrt_math.h
; Line 711
	movaps	xmm1, xmm5
	andps	xmm1, xmm6
; File C:\Users\artem.zyktin\projects\tenvex\src\tenvex\expressions\core\core_sse.h
; Line 71
	shufps	xmm3, xmm5, 2
; File C:\Program Files (x86)\Windows Kits\10\include\10.0.26100.0\ucrt\corecrt_math.h
; Line 711
	movaps	xmm0, xmm3
; File C:\Users\artem.zyktin\projects\tenvex\src\tenvex\expressions\core\core_sse.h
; Line 71
	movaps	xmm2, xmm5
; File C:\Program Files (x86)\Windows Kits\10\include\10.0.26100.0\ucrt\corecrt_math.h
; Line 711
	andps	xmm0, xmm6
; File C:\Users\artem.zyktin\projects\tenvex\src\tenvex\expressions\core\core_sse.h
; Line 71
	shufps	xmm2, xmm5, 1
; File C:\Users\artem.zyktin\projects\tenvex\src\tenvex\expressions\vec\vec_operations_impl.hpp
; Line 74
	comiss	xmm1, xmm0
	xorps	xmm1, xmm1
	jbe	SHORT $LN61@cg_orthogo
	xorps	xmm2, xmm4
; File C:\Users\artem.zyktin\projects\tenvex\src\tenvex\expressions\core\core_sse.h
; Line 21
	movaps	xmm3, xmm2
	unpcklps xmm3, xmm5
	movlhps	xmm3, xmm1
; File C:\Users\artem.zyktin\projects\tenvex\src\tenvex\expressions\vec\vec_operations_impl.hpp
; Line 74
	jmp	SHORT $LN62@cg_orthogo
$LN61@cg_orthogo:
	xorps	xmm3, xmm4
; File C:\Users\artem.zyktin\projects\tenvex\src\tenvex\expressions\core\core_sse.h
; Line 21
	unpcklps xmm2, xmm1
	movaps	xmm0, xmm3
	xorps	xmm3, xmm3
	unpcklps xmm3, xmm0
	movlhps	xmm3, xmm2
$LN62@cg_orthogo:
; File C:\Users\artem.zyktin\projects\tenvex\src\codegen\cg_composed.cpp
; Line 50
	movups	XMMWORD PTR [rdx+rcx*8+32], xmm3
; File C:\Users\artem.zyktin\projects\tenvex\src\tenvex\expressions\vec\vec4_impl.hpp
; Line 77
	movups	xmm5, XMMWORD PTR [r9+rcx*8+48]
; File C:\Users\artem.zyktin\projects\tenvex\src\tenvex\expressions\core\core_sse.h
; Line 71
	movaps	xmm3, xmm5
; File C:\Program Files (x86)\Windows Kits\10\include\10.0.26100.0\ucrt\corecrt_math.h
; Line 711
	movaps	xmm1, xmm5
	andps	xmm1, xmm6
; File C:\Users\artem.zyktin\projects\tenvex\src\tenvex\expressions\core\core_sse.h
; Line 71
	shufps	xmm3, xmm5, 2
; File C:\Program Files (x86)\Windows Kits\10\include\10.0.26100.0\ucrt\corecrt_math.h
; Line 711
	movaps	xmm0, xmm3
; File C:\Users\artem.zyktin\projects\tenvex\src\tenvex\expressions\core\core_sse.h
; Line 71
	movaps	xmm2, xmm5
; File C:\Program Files (x86)\Windows Kits\10\include\10.0.26100.0\ucrt\corecrt_math.h
; Line 711
	andps	xmm0, xmm6
; File C:\Users\artem.zyktin\projects\tenvex\src\tenvex\expressions\core\core_sse.h
; Line 71
	shufps	xmm2, xmm5, 1
; File C:\Users\artem.zyktin\projects\tenvex\src\tenvex\expressions\vec\vec_operations_impl.hpp
; Line 74
	comiss	xmm1, xmm0
	xorps	xmm1, xmm1
	jbe	SHORT $LN63@cg_orthogo
	xorps	xmm2, xmm4
; File C:\Users\artem.zyktin\projects\tenvex\src\tenvex\expressions\core\core_sse.h
; Line 21
	movaps	xmm3, xmm2
	unpcklps xmm3, xmm5
	movlhps	xmm3, xmm1
; File C:\Users\artem.zyktin\projects\tenvex\src\tenvex\expressions\vec\vec_operations_impl.hpp
; Line 74
	jmp	SHORT $LN64@cg_orthogo
$LN63@cg_orthogo:
	xorps	xmm3, xmm4
; File C:\Users\artem.zyktin\projects\tenvex\src\tenvex\expressions\core\core_sse.h
; Line 21
	unpcklps xmm2, xmm1
	movaps	xmm0, xmm3
	xorps	xmm3, xmm3
	unpcklps xmm3, xmm0
	movlhps	xmm3, xmm2
$LN64@cg_orthogo:
; File C:\Users\artem.zyktin\projects\tenvex\src\codegen\cg_composed.cpp
; Line 50
	add	rax, 4
	movups	XMMWORD PTR [rdx+rcx*8+48], xmm3
	cmp	rax, r10
	jb	$LL65@cg_orthogo
$LC56@cg_orthogo:
; Line 49
	cmp	rax, r8
	jae	SHORT $LN55@cg_orthogo
$LC4@cg_orthogo:
; Line 50
	mov	rcx, rax
	add	rcx, rcx
; File C:\Users\artem.zyktin\projects\tenvex\src\tenvex\expressions\vec\vec4_impl.hpp
; Line 77
	movups	xmm5, XMMWORD PTR [r9+rcx*8]
; File C:\Users\artem.zyktin\projects\tenvex\src\tenvex\expressions\core\core_sse.h
; Line 71
	movaps	xmm3, xmm5
; File C:\Program Files (x86)\Windows Kits\10\include\10.0.26100.0\ucrt\corecrt_math.h
; Line 711
	movaps	xmm1, xmm5
	andps	xmm1, xmm6
; File C:\Users\artem.zyktin\projects\tenvex\src\tenvex\expressions\core\core_sse.h
; Line 71
	shufps	xmm3, xmm5, 2
; File C:\Program Files (x86)\Windows Kits\10\include\10.0.26100.0\ucrt\corecrt_math.h
; Line 711
	movaps	xmm0, xmm3
; File C:\Users\artem.zyktin\projects\tenvex\src\tenvex\expressions\core\core_sse.h
; Line 71
	movaps	xmm2, xmm5
; File C:\Program Files (x86)\Windows Kits\10\include\10.0.26100.0\ucrt\corecrt_math.h
; Line 711
	andps	xmm0, xmm6
; File C:\Users\artem.zyktin\projects\tenvex\src\tenvex\expressions\core\core_sse.h
; Line 71
	shufps	xmm2, xmm5, 1
; File C:\Users\artem.zyktin\projects\tenvex\src\tenvex\expressions\vec\vec_operations_impl.hpp
; Line 74
	comiss	xmm1, xmm0
	xorps	xmm1, xmm1
	jbe	SHORT $LN8@cg_orthogo
	xorps	xmm2, xmm4
; File C:\Users\artem.zyktin\projects\tenvex\src\tenvex\expressions\core\core_sse.h
; Line 21
	movaps	xmm3, xmm2
	unpcklps xmm3, xmm5
	movlhps	xmm3, xmm1
; File C:\Users\artem.zyktin\projects\tenvex\src\tenvex\expressions\vec\vec_operations_impl.hpp
; Line 74
	jmp	SHORT $LN9@cg_orthogo
$LN8@cg_orthogo:
	xorps	xmm3, xmm4
; File C:\Users\artem.zyktin\projects\tenvex\src\tenvex\expressions\core\core_sse.h
; Line 21
	unpcklps xmm2, xmm1
	movaps	xmm0, xmm3
	xorps	xmm3, xmm3
	unpcklps xmm3, xmm0
	movlhps	xmm3, xmm2
$LN9@cg_orthogo:
; File C:\Users\artem.zyktin\projects\tenvex\src\codegen\cg_composed.cpp
; Line 49
	inc	rax
; Line 50
	movups	XMMWORD PTR [rdx+rcx*8], xmm3
	cmp	rax, r8
	jb	SHORT $LC4@cg_orthogo
$LN55@cg_orthogo:
; Line 51
	movaps	xmm6, XMMWORD PTR [rsp]
	add	rsp, 24
	ret	0
cg_orthogonal ENDP
_TEXT	ENDS
; Function compile flags: /Ogtpy
;	COMDAT cg_nlerp
_TEXT	SEGMENT
qa$ = 48
qb$ = 56
t$ = 64
out$ = 72
n$ = 80
cg_nlerp PROC						; COMDAT
; File C:\Users\artem.zyktin\projects\tenvex\src\codegen\cg_composed.cpp
; Line 55
$LN148:
	sub	rsp, 40					; 00000028H
	mov	r11, QWORD PTR n$[rsp]
	movaps	xmm5, xmm2
; Line 56
	movss	xmm2, DWORD PTR __real@3f800000
	xor	r8d, r8d
	movss	xmm3, DWORD PTR __real@bf800000
	movaps	xmm4, xmm2
	movaps	XMMWORD PTR [rsp], xmm7
	subss	xmm4, xmm5
	mov	r10, rcx
	xorps	xmm7, xmm7
	cmp	r11, 4
	jb	$LN135@cg_nlerp
	mov	QWORD PTR [rsp+32], rbx
	xor	ecx, ecx
	movaps	XMMWORD PTR [rsp+16], xmm6
	lea	rbx, QWORD PTR [r11-3]
	movaps	xmm6, xmm4
	shufps	xmm6, xmm6, 0
$LL132@cg_nlerp:
; Line 57
	mov	rax, r8
	add	rax, rax
; File C:\Users\artem.zyktin\projects\tenvex\src\tenvex\expressions\common\dot4_impl.hpp
; Line 12
	movups	xmm0, XMMWORD PTR [r10+rax*8]
; File C:\Users\artem.zyktin\projects\tenvex\src\tenvex\expressions\core\core_sse.h
; Line 125
	mulps	xmm0, XMMWORD PTR [rdx+rax*8]
; Line 126
	haddps	xmm0, xmm0
; Line 127
	haddps	xmm0, xmm0
; File C:\Users\artem.zyktin\projects\tenvex\src\tenvex\expressions\quat\quat_operations_impl.hpp
; Line 40
	comiss	xmm7, xmm0
	jbe	SHORT $LN124@cg_nlerp
	movaps	xmm0, xmm3
	jmp	SHORT $LN125@cg_nlerp
$LN124@cg_nlerp:
	movaps	xmm0, xmm2
$LN125@cg_nlerp:
; Line 41
	mulss	xmm0, xmm5
; File C:\Users\artem.zyktin\projects\tenvex\src\tenvex\expressions\core\core_sse.h
; Line 101
	movaps	xmm1, xmm6
	mulps	xmm1, XMMWORD PTR [r10+rax*8]
; Line 58
	shufps	xmm0, xmm0, 0
; Line 101
	mulps	xmm0, XMMWORD PTR [rdx+rax*8]
; Line 89
	addps	xmm1, xmm0
; Line 125
	movaps	xmm0, xmm1
	mulps	xmm0, xmm1
; Line 126
	haddps	xmm0, xmm0
; Line 127
	haddps	xmm0, xmm0
; Line 145
	sqrtps	xmm0, xmm0
; Line 279
	divps	xmm1, xmm0
; File C:\Users\artem.zyktin\projects\tenvex\src\codegen\cg_composed.cpp
; Line 57
	movups	XMMWORD PTR [r9+rax*8], xmm1
; File C:\Users\artem.zyktin\projects\tenvex\src\tenvex\expressions\common\dot4_impl.hpp
; Line 12
	movups	xmm0, XMMWORD PTR [r10+rax*8+16]
; File C:\Users\artem.zyktin\projects\tenvex\src\tenvex\expressions\core\core_sse.h
; Line 125
	mulps	xmm0, XMMWORD PTR [rdx+rax*8+16]
; Line 126
	haddps	xmm0, xmm0
; Line 127
	haddps	xmm0, xmm0
; File C:\Users\artem.zyktin\projects\tenvex\src\tenvex\expressions\quat\quat_operations_impl.hpp
; Line 40
	comiss	xmm7, xmm0
	jbe	SHORT $LN126@cg_nlerp
	movaps	xmm0, xmm3
	jmp	SHORT $LN127@cg_nlerp
$LN126@cg_nlerp:
	movaps	xmm0, xmm2
$LN127@cg_nlerp:
; Line 41
	mulss	xmm0, xmm5
; File C:\Users\artem.zyktin\projects\tenvex\src\tenvex\expressions\core\core_sse.h
; Line 101
	movaps	xmm1, xmm6
	mulps	xmm1, XMMWORD PTR [r10+rax*8+16]
; Line 58
	shufps	xmm0, xmm0, 0
; Line 101
	mulps	xmm0, XMMWORD PTR [rdx+rax*8+16]
; Line 89
	addps	xmm1, xmm0
; Line 125
	movaps	xmm0, xmm1
	mulps	xmm0, xmm1
; Line 126
	haddps	xmm0, xmm0
; Line 127
	haddps	xmm0, xmm0
; Line 145
	sqrtps	xmm0, xmm0
; Line 279
	divps	xmm1, xmm0
; File C:\Users\artem.zyktin\projects\tenvex\src\codegen\cg_composed.cpp
; Line 57
	movups	XMMWORD PTR [r9+rax*8+16], xmm1
; File C:\Users\artem.zyktin\projects\tenvex\src\tenvex\expressions\common\dot4_impl.hpp
; Line 12
	movups	xmm0, XMMWORD PTR [rcx+r10+32]
; File C:\Users\artem.zyktin\projects\tenvex\src\tenvex\expressions\core\core_sse.h
; Line 125
	mulps	xmm0, XMMWORD PTR [rcx+rdx+32]
; Line 126
	haddps	xmm0, xmm0
; Line 127
	haddps	xmm0, xmm0
; File C:\Users\artem.zyktin\projects\tenvex\src\tenvex\expressions\quat\quat_operations_impl.hpp
; Line 40
	comiss	xmm7, xmm0
	jbe	SHORT $LN128@cg_nlerp
	movaps	xmm0, xmm3
	jmp	SHORT $LN129@cg_nlerp
$LN128@cg_nlerp:
	movaps	xmm0, xmm2
$LN129@cg_nlerp:
; Line 41
	mulss	xmm0, xmm5
; File C:\Users\artem.zyktin\projects\tenvex\src\tenvex\expressions\core\core_sse.h
; Line 101
	movaps	xmm1, xmm6
	mulps	xmm1, XMMWORD PTR [rcx+r10+32]
; Line 58
	shufps	xmm0, xmm0, 0
; Line 101
	mulps	xmm0, XMMWORD PTR [rcx+rdx+32]
; Line 89
	addps	xmm1, xmm0
; Line 125
	movaps	xmm0, xmm1
	mulps	xmm0, xmm1
; Line 126
	haddps	xmm0, xmm0
; Line 127
	haddps	xmm0, xmm0
; Line 145
	sqrtps	xmm0, xmm0
; Line 279
	divps	xmm1, xmm0
; File C:\Users\artem.zyktin\projects\tenvex\src\codegen\cg_composed.cpp
; Line 57
	movups	XMMWORD PTR [rcx+r9+32], xmm1
; File C:\Users\artem.zyktin\projects\tenvex\src\tenvex\expressions\common\dot4_impl.hpp
; Line 12
	movups	xmm0, XMMWORD PTR [rcx+r10+48]
; File C:\Users\artem.zyktin\projects\tenvex\src\tenvex\expressions\core\core_sse.h
; Line 125
	mulps	xmm0, XMMWORD PTR [rcx+rdx+48]
; Line 126
	haddps	xmm0, xmm0
; Line 127
	haddps	xmm0, xmm0
; File C:\Users\artem.zyktin\projects\tenvex\src\tenvex\expressions\quat\quat_operations_impl.hpp
; Line 40
	comiss	xmm7, xmm0
	jbe	SHORT $LN130@cg_nlerp
	movaps	xmm0, xmm3
	jmp	SHORT $LN131@cg_nlerp
$LN130@cg_nlerp:
	movaps	xmm0, xmm2
$LN131@cg_nlerp:
; Line 41
	mulss	xmm0, xmm5
; File C:\Users\artem.zyktin\projects\tenvex\src\tenvex\expressions\core\core_sse.h
; Line 101
	movaps	xmm1, xmm6
; File C:\Users\artem.zyktin\projects\tenvex\src\codegen\cg_composed.cpp
; Line 57
	add	r8, 4
; File C:\Users\artem.zyktin\projects\tenvex\src\tenvex\expressions\core\core_sse.h
; Line 101
	mulps	xmm1, XMMWORD PTR [rcx+r10+48]
; Line 58
	shufps	xmm0, xmm0, 0
; Line 101
	mulps	xmm0, XMMWORD PTR [rcx+rdx+48]
; Line 89
	addps	xmm1, xmm0
; Line 125
	movaps	xmm0, xmm1
	mulps	xmm0, xmm1
; Line 126
	haddps	xmm0, xmm0
; Line 127
	haddps	xmm0, xmm0
; Line 145
	sqrtps	xmm0, xmm0
; Line 279
	divps	xmm1, xmm0
; File C:\Users\artem.zyktin\projects\tenvex\src\codegen\cg_composed.cpp
; Line 57
	movups	XMMWORD PTR [rcx+r9+48], xmm1
	add	rcx, 64					; 00000040H
	cmp	r8, rbx
	jb	$LL132@cg_nlerp
; Line 56
	movaps	xmm6, XMMWORD PTR [rsp+16]
	mov	rbx, QWORD PTR [rsp+32]
$LN135@cg_nlerp:
	cmp	r8, r11
	jae	SHORT $LN122@cg_nlerp
	shufps	xmm4, xmm4, 0
$LC4@cg_nlerp:
; Line 57
	mov	rax, r8
	add	rax, rax
; File C:\Users\artem.zyktin\projects\tenvex\src\tenvex\expressions\common\dot4_impl.hpp
; Line 12
	movups	xmm0, XMMWORD PTR [r10+rax*8]
; File C:\Users\artem.zyktin\projects\tenvex\src\tenvex\expressions\core\core_sse.h
; Line 125
	mulps	xmm0, XMMWORD PTR [rdx+rax*8]
; Line 126
	haddps	xmm0, xmm0
; Line 127
	haddps	xmm0, xmm0
; File C:\Users\artem.zyktin\projects\tenvex\src\tenvex\expressions\quat\quat_operations_impl.hpp
; Line 40
	comiss	xmm7, xmm0
	jbe	SHORT $LN8@cg_nlerp
	movaps	xmm0, xmm3
	jmp	SHORT $LN9@cg_nlerp
$LN8@cg_nlerp:
	movaps	xmm0, xmm2
$LN9@cg_nlerp:
; Line 41
	mulss	xmm0, xmm5
; File C:\Users\artem.zyktin\projects\tenvex\src\tenvex\expressions\core\core_sse.h
; Line 101
	movaps	xmm1, xmm4
; File C:\Users\artem.zyktin\projects\tenvex\src\codegen\cg_composed.cpp
; Line 56
	inc	r8
; File C:\Users\artem.zyktin\projects\tenvex\src\tenvex\expressions\core\core_sse.h
; Line 101
	mulps	xmm1, XMMWORD PTR [r10+rax*8]
; Line 58
	shufps	xmm0, xmm0, 0
; Line 101
	mulps	xmm0, XMMWORD PTR [rdx+rax*8]
; Line 89
	addps	xmm1, xmm0
; Line 125
	movaps	xmm0, xmm1
	mulps	xmm0, xmm1
; Line 126
	haddps	xmm0, xmm0
; Line 127
	haddps	xmm0, xmm0
; Line 145
	sqrtps	xmm0, xmm0
; Line 279
	divps	xmm1, xmm0
; File C:\Users\artem.zyktin\projects\tenvex\src\codegen\cg_composed.cpp
; Line 57
	movups	XMMWORD PTR [r9+rax*8], xmm1
	cmp	r8, r11
	jb	SHORT $LC4@cg_nlerp
$LN122@cg_nlerp:
; Line 58
	movaps	xmm7, XMMWORD PTR [rsp]
	add	rsp, 40					; 00000028H
	ret	0
cg_nlerp ENDP
_TEXT	ENDS
; Function compile flags: /Ogtpy
;	COMDAT ??$nlerp@Uquat@tnvx@@U12@@tnvx@@YA?AUquat@0@AEBU10@0M@Z
_TEXT	SEGMENT
__$ReturnUdt$ = 8
a$ = 16
b$ = 24
t$ = 32
??$nlerp@Uquat@tnvx@@U12@@tnvx@@YA?AUquat@0@AEBU10@0M@Z PROC ; tnvx::nlerp<tnvx::quat,tnvx::quat>, COMDAT
; File C:\Users\artem.zyktin\projects\tenvex\src\tenvex\expressions\quat\quat_operations_impl.hpp
; File C:\Users\artem.zyktin\projects\tenvex\src\tenvex\expressions\common\dot4_impl.hpp
; Line 12
	movups	xmm1, XMMWORD PTR [rdx]
	xorps	xmm0, xmm0
; File C:\Users\artem.zyktin\projects\tenvex\src\tenvex\expressions\core\core_sse.h
; Line 125
	mulps	xmm1, XMMWORD PTR [r8]
; File C:\Users\artem.zyktin\projects\tenvex\src\tenvex\expressions\quat\quat_operations_impl.hpp
; Line 40
	movss	xmm2, DWORD PTR __real@3f800000
; File C:\Users\artem.zyktin\projects\tenvex\src\tenvex\expressions\core\core_sse.h
; Line 126
	haddps	xmm1, xmm1
; Line 127
	haddps	xmm1, xmm1
; File C:\Users\artem.zyktin\projects\tenvex\src\tenvex\expressions\quat\quat_operations_impl.hpp
; Line 40
	comiss	xmm0, xmm1
	jbe	SHORT $LN3@nlerp
	movss	xmm0, DWORD PTR __real@bf800000
	jmp	SHORT $LN4@nlerp
$LN3@nlerp:
	movaps	xmm0, xmm2
$LN4@nlerp:
; Line 41
	mulss	xmm0, xmm3
	subss	xmm2, xmm3
	mov	rax, rcx
; File C:\Users\artem.zyktin\projects\tenvex\src\tenvex\expressions\core\core_sse.h
; Line 58
	shufps	xmm0, xmm0, 0
; Line 101
	mulps	xmm0, XMMWORD PTR [r8]
; Line 58
	shufps	xmm2, xmm2, 0
; Line 101
	mulps	xmm2, XMMWORD PTR [rdx]
; Line 89
	addps	xmm2, xmm0
; Line 125
	movaps	xmm0, xmm2
	mulps	xmm0, xmm2
; Line 126
	haddps	xmm0, xmm0
; Line 127
	haddps	xmm0, xmm0
; Line 145
	sqrtps	xmm0, xmm0
; Line 279
	divps	xmm2, xmm0
; File C:\Users\artem.zyktin\projects\tenvex\src\tenvex\expressions\common\normalize4_impl.hpp
; Line 19
	movups	XMMWORD PTR [rcx], xmm2
; File C:\Users\artem.zyktin\projects\tenvex\src\tenvex\expressions\quat\quat_operations_impl.hpp
; Line 42
	ret	0
??$nlerp@Uquat@tnvx@@U12@@tnvx@@YA?AUquat@0@AEBU10@0M@Z ENDP ; tnvx::nlerp<tnvx::quat,tnvx::quat>
_TEXT	ENDS
; Function compile flags: /Ogtpy
;	COMDAT ??$?GUvec4@tnvx@@U01@@tnvx@@YA?AU?$Sub@Uvec4@tnvx@@U12@@0@AEBUvec4@0@0@Z
_TEXT	SEGMENT
__$ReturnUdt$ = 8
l$ = 16
r$ = 24
??$?GUvec4@tnvx@@U01@@tnvx@@YA?AU?$Sub@Uvec4@tnvx@@U12@@0@AEBUvec4@0@0@Z PROC ; tnvx::operator-<tnvx::vec4,tnvx::vec4>, COMDAT
; File C:\Users\artem.zyktin\projects\tenvex\src\tenvex\expressions\common\sub_impl.hpp
; Line 12
	movaps	xmm0, XMMWORD PTR [rdx]
; Line 38
	mov	rax, rcx
; Line 13
	movaps	xmm1, XMMWORD PTR [r8]
	movups	XMMWORD PTR [rcx], xmm0
	movups	XMMWORD PTR [rcx+16], xmm1
; Line 39
	ret	0
??$?GUvec4@tnvx@@U01@@tnvx@@YA?AU?$Sub@Uvec4@tnvx@@U12@@0@AEBUvec4@0@0@Z ENDP ; tnvx::operator-<tnvx::vec4,tnvx::vec4>
_TEXT	ENDS
; Function compile flags: /Ogtpy
;	COMDAT ??0?$Sub@Uvec4@tnvx@@U12@@tnvx@@QEAA@AEIBUvec4@1@0@Z
_TEXT	SEGMENT
this$ = 8
l$ = 16
r$ = 24
??0?$Sub@Uvec4@tnvx@@U12@@tnvx@@QEAA@AEIBUvec4@1@0@Z PROC ; tnvx::Sub<tnvx::vec4,tnvx::vec4>::Sub<tnvx::vec4,tnvx::vec4>, COMDAT
; File C:\Users\artem.zyktin\projects\tenvex\src\tenvex\expressions\common\sub_impl.hpp
; Line 12
	movaps	xmm0, XMMWORD PTR [rdx]
; Line 15
	mov	rax, rcx
	movaps	xmm1, XMMWORD PTR [r8]
	movups	XMMWORD PTR [rcx], xmm0
	movups	XMMWORD PTR [rcx+16], xmm1
	ret	0
??0?$Sub@Uvec4@tnvx@@U12@@tnvx@@QEAA@AEIBUvec4@1@0@Z ENDP ; tnvx::Sub<tnvx::vec4,tnvx::vec4>::Sub<tnvx::vec4,tnvx::vec4>
_TEXT	ENDS
; Function compile flags: /Ogtpy
;	COMDAT ?eval@?$Sub@Uvec4@tnvx@@U12@@tnvx@@QEBA?AT__m128@@XZ
_TEXT	SEGMENT
this$ = 8
__$ReturnUdt$ = 16
?eval@?$Sub@Uvec4@tnvx@@U12@@tnvx@@QEBA?AT__m128@@XZ PROC ; tnvx::Sub<tnvx::vec4,tnvx::vec4>::eval, COMDAT
; File C:\Users\artem.zyktin\projects\tenvex\src\tenvex\expressions\common\sub_impl.hpp
; File C:\Users\artem.zyktin\projects\tenvex\src\tenvex\expressions\core\core_sse.h
; Line 95
	movups	xmm0, XMMWORD PTR [rcx]
; File C:\Users\artem.zyktin\projects\tenvex\src\tenvex\expressions\common\sub_impl.hpp
; Line 22
	mov	rax, rdx
; File C:\Users\artem.zyktin\projects\tenvex\src\tenvex\expressions\core\core_sse.h
; Line 95
	subps	xmm0, XMMWORD PTR [rcx+16]
; File C:\Users\artem.zyktin\projects\tenvex\src\tenvex\expressions\common\sub_impl.hpp
; Line 22
	movups	XMMWORD PTR [rdx], xmm0
; Line 23
	ret	0
?eval@?$Sub@Uvec4@tnvx@@U12@@tnvx@@QEBA?AT__m128@@XZ ENDP ; tnvx::Sub<tnvx::vec4,tnvx::vec4>::eval
_TEXT	ENDS
; Function compile flags: /Ogtpy
;	COMDAT ??$?DU?$Sub@Uvec4@tnvx@@U12@@tnvx@@@tnvx@@YA?AU?$Mul@U?$Sub@Uvec4@tnvx@@U12@@tnvx@@UScalar@2@@0@AEBU?$Sub@Uvec4@tnvx@@U12@@0@M@Z
_TEXT	SEGMENT
__$ReturnUdt$ = 8
l$ = 16
r$ = 24
??$?DU?$Sub@Uvec4@tnvx@@U12@@tnvx@@@tnvx@@YA?AU?$Mul@U?$Sub@Uvec4@tnvx@@U12@@tnvx@@UScalar@2@@0@AEBU?$Sub@Uvec4@tnvx@@U12@@0@M@Z PROC ; tnvx::operator*<tnvx::Sub<tnvx::vec4,tnvx::vec4> >, COMDAT
; File C:\Users\artem.zyktin\projects\tenvex\src\tenvex\expressions\common\mul_impl.hpp
; File C:\Users\artem.zyktin\projects\tenvex\src\tenvex\expressions\core\core_sse.h
; Line 58
	shufps	xmm2, xmm2, 0
; File C:\Users\artem.zyktin\projects\tenvex\src\tenvex\expressions\common\mul_impl.hpp
; Line 29
	mov	rax, rcx
; Line 13
	movups	XMMWORD PTR [rcx+16], xmm2
	mov	QWORD PTR [rcx], rdx
; Line 30
	ret	0
??$?DU?$Sub@Uvec4@tnvx@@U12@@tnvx@@@tnvx@@YA?AU?$Mul@U?$Sub@Uvec4@tnvx@@U12@@tnvx@@UScalar@2@@0@AEBU?$Sub@Uvec4@tnvx@@U12@@0@M@Z ENDP ; tnvx::operator*<tnvx::Sub<tnvx::vec4,tnvx::vec4> >
_TEXT	ENDS
; Function compile flags: /Ogtpy
;	COMDAT ??0?$Mul@U?$Sub@Uvec4@tnvx@@U12@@tnvx@@UScalar@2@@tnvx@@QEAA@AEIBU?$Sub@Uvec4@tnvx@@U12@@1@AEIBUScalar@1@@Z
_TEXT	SEGMENT
this$ = 8
l$ = 16
r$ = 24
??0?$Mul@U?$Sub@Uvec4@tnvx@@U12@@tnvx@@UScalar@2@@tnvx@@QEAA@AEIBU?$Sub@Uvec4@tnvx@@U12@@1@AEIBUScalar@1@@Z PROC ; tnvx::Mul<tnvx::Sub<tnvx::vec4,tnvx::vec4>,tnvx::Scalar>::Mul<tnvx::Sub<tnvx::vec4,tnvx::vec4>,tnvx::Scalar>, COMDAT
; File C:\Users\artem.zyktin\projects\tenvex\src\tenvex\expressions\common\mul_impl.hpp
; Line 13
	movaps	xmm0, XMMWORD PTR [r8]
; Line 15
	mov	rax, rcx
	movups	XMMWORD PTR [rcx+16], xmm0
	mov	QWORD PTR [rcx], rdx
	ret	0
??0?$Mul@U?$Sub@Uvec4@tnvx@@U12@@tnvx@@UScalar@2@@tnvx@@QEAA@AEIBU?$Sub@Uvec4@tnvx@@U12@@1@AEIBUScalar@1@@Z ENDP ; tnvx::Mul<tnvx::Sub<tnvx::vec4,tnvx::vec4>,tnvx::Scalar>::Mul<tnvx::Sub<tnvx::vec4,tnvx::vec4>,tnvx::Scalar>
_TEXT	ENDS
; Function compile flags: /Ogtpy
;	COMDAT ?eval@?$Mul@U?$Sub@Uvec4@tnvx@@U12@@tnvx@@UScalar@2@@tnvx@@QEBA?AT__m128@@XZ
_TEXT	SEGMENT
this$ = 8
__$ReturnUdt$ = 16
?eval@?$Mul@U?$Sub@Uvec4@tnvx@@U12@@tnvx@@UScalar@2@@tnvx@@QEBA?AT__m128@@XZ PROC ; tnvx::Mul<tnvx::Sub<tnvx::vec4,tnvx::vec4>,tnvx::Scalar>::eval, COMDAT
; File C:\Users\artem.zyktin\projects\tenvex\src\tenvex\expressions\common\mul_impl.hpp
; Line 22
	mov	rax, QWORD PTR [rcx]
; File C:\Users\artem.zyktin\projects\tenvex\src\tenvex\expressions\core\core_sse.h
; Line 95
	movups	xmm0, XMMWORD PTR [rax]
	subps	xmm0, XMMWORD PTR [rax+16]
; File C:\Users\artem.zyktin\projects\tenvex\src\tenvex\expressions\common\mul_impl.hpp
; Line 22
	mov	rax, rdx
; File C:\Users\artem.zyktin\projects\tenvex\src\tenvex\expressions\core\core_sse.h
; Line 101
	mulps	xmm0, XMMWORD PTR [rcx+16]
; File C:\Users\artem.zyktin\projects\tenvex\src\tenvex\expressions\common\mul_impl.hpp
; Line 22
	movups	XMMWORD PTR [rdx], xmm0
; Line 23
	ret	0
?eval@?$Mul@U?$Sub@Uvec4@tnvx@@U12@@tnvx@@UScalar@2@@tnvx@@QEBA?AT__m128@@XZ ENDP ; tnvx::Mul<tnvx::Sub<tnvx::vec4,tnvx::vec4>,tnvx::Scalar>::eval
_TEXT	ENDS
; Function compile flags: /Ogtpy
;	COMDAT ??$?HUvec4@tnvx@@U?$Mul@U?$Sub@Uvec4@tnvx@@U12@@tnvx@@UScalar@2@@1@@tnvx@@YA?AU?$Add@Uvec4@tnvx@@U?$Mul@U?$Sub@Uvec4@tnvx@@U12@@tnvx@@UScalar@2@@2@@0@AEBUvec4@0@AEBU?$Mul@U?$Sub@Uvec4@tnvx@@U12@@tnvx@@UScalar@2@@0@@Z
_TEXT	SEGMENT
__$ReturnUdt$ = 8
l$ = 16
r$ = 24
??$?HUvec4@tnvx@@U?$Mul@U?$Sub@Uvec4@tnvx@@U12@@tnvx@@UScalar@2@@1@@tnvx@@YA?AU?$Add@Uvec4@tnvx@@U?$Mul@U?$Sub@Uvec4@tnvx@@U12@@tnvx@@UScalar@2@@2@@0@AEBUvec4@0@AEBU?$Mul@U?$Sub@Uvec4@tnvx@@U12@@tnvx@@UScalar@2@@0@@Z PROC ; tnvx::operator+<tnvx::vec4,tnvx::Mul<tnvx::Sub<tnvx::vec4,tnvx::vec4>,tnvx::Scalar> >, COMDAT
; File C:\Users\artem.zyktin\projects\tenvex\src\tenvex\expressions\common\add_impl.hpp
; Line 12
	movaps	xmm0, XMMWORD PTR [rdx]
; Line 38
	mov	rax, rcx
; Line 12
	movups	XMMWORD PTR [rcx], xmm0
; Line 13
	mov	QWORD PTR [rcx+16], r8
; Line 39
	ret	0
??$?HUvec4@tnvx@@U?$Mul@U?$Sub@Uvec4@tnvx@@U12@@tnvx@@UScalar@2@@1@@tnvx@@YA?AU?$Add@Uvec4@tnvx@@U?$Mul@U?$Sub@Uvec4@tnvx@@U12@@tnvx@@UScalar@2@@2@@0@AEBUvec4@0@AEBU?$Mul@U?$Sub@Uvec4@tnvx@@U12@@tnvx@@UScalar@2@@0@@Z ENDP ; tnvx::operator+<tnvx::vec4,tnvx::Mul<tnvx::Sub<tnvx::vec4,tnvx::vec4>,tnvx::Scalar> >
_TEXT	ENDS
; Function compile flags: /Ogtpy
;	COMDAT ??0?$Add@Uvec4@tnvx@@U?$Mul@U?$Sub@Uvec4@tnvx@@U12@@tnvx@@UScalar@2@@2@@tnvx@@QEAA@AEIBUvec4@1@AEIBU?$Mul@U?$Sub@Uvec4@tnvx@@U12@@tnvx@@UScalar@2@@1@@Z
_TEXT	SEGMENT
this$ = 8
l$ = 16
r$ = 24
??0?$Add@Uvec4@tnvx@@U?$Mul@U?$Sub@Uvec4@tnvx@@U12@@tnvx@@UScalar@2@@2@@tnvx@@QEAA@AEIBUvec4@1@AEIBU?$Mul@U?$Sub@Uvec4@tnvx@@U12@@tnvx@@UScalar@2@@1@@Z PROC ; tnvx::Add<tnvx::vec4,tnvx::Mul<tnvx::Sub<tnvx::vec4,tnvx::vec4>,tnvx::Scalar> >::Add<tnvx::vec4,tnvx::Mul<tnvx::Sub<tnvx::vec4,tnvx::vec4>,tnvx::Scalar> >, COMDAT
; File C:\Users\artem.zyktin\projects\tenvex\src\tenvex\expressions\common\add_impl.hpp
; Line 12
	movaps	xmm0, XMMWORD PTR [rdx]
; Line 15
	mov	rax, rcx
	movups	XMMWORD PTR [rcx], xmm0
	mov	QWORD PTR [rcx+16], r8
	ret	0
??0?$Add@Uvec4@tnvx@@U?$Mul@U?$Sub@Uvec4@tnvx@@U12@@tnvx@@UScalar@2@@2@@tnvx@@QEAA@AEIBUvec4@1@AEIBU?$Mul@U?$Sub@Uvec4@tnvx@@U12@@tnvx@@UScalar@2@@1@@Z ENDP ; tnvx::Add<tnvx::vec4,tnvx::Mul<tnvx::Sub<tnvx::vec4,tnvx::vec4>,tnvx::Scalar> >::Add<tnvx::vec4,tnvx::Mul<tnvx::Sub<tnvx::vec4,tnvx::vec4>,tnvx::Scalar> >
_TEXT	ENDS
; Function compile flags: /Ogtpy
;	COMDAT ?eval@?$Add@Uvec4@tnvx@@U?$Mul@U?$Sub@Uvec4@tnvx@@U12@@tnvx@@UScalar@2@@2@@tnvx@@QEBA?AT__m128@@XZ
_TEXT	SEGMENT
this$ = 8
__$ReturnUdt$ = 16
?eval@?$Add@Uvec4@tnvx@@U?$Mul@U?$Sub@Uvec4@tnvx@@U12@@tnvx@@UScalar@2@@2@@tnvx@@QEBA?AT__m128@@XZ PROC ; tnvx::Add<tnvx::vec4,tnvx::Mul<tnvx::Sub<tnvx::vec4,tnvx::vec4>,tnvx::Scalar> >::eval, COMDAT
; File C:\Users\artem.zyktin\projects\tenvex\src\tenvex\expressions\common\add_impl.hpp
; Line 22
	mov	r8, QWORD PTR [rcx+16]
; File C:\Users\artem.zyktin\projects\tenvex\src\tenvex\expressions\common\mul_impl.hpp
; Line 22
	mov	rax, QWORD PTR [r8]
; File C:\Users\artem.zyktin\projects\tenvex\src\tenvex\expressions\core\core_sse.h
; Line 95
	movups	xmm0, XMMWORD PTR [rax]
	subps	xmm0, XMMWORD PTR [rax+16]
; File C:\Users\artem.zyktin\projects\tenvex\src\tenvex\expressions\common\add_impl.hpp
; Line 22
	mov	rax, rdx
; File C:\Users\artem.zyktin\projects\tenvex\src\tenvex\expressions\core\core_sse.h
; Line 101
	mulps	xmm0, XMMWORD PTR [r8+16]
; Line 89
	addps	xmm0, XMMWORD PTR [rcx]
; File C:\Users\artem.zyktin\projects\tenvex\src\tenvex\expressions\common\add_impl.hpp
; Line 22
	movups	XMMWORD PTR [rdx], xmm0
; Line 23
	ret	0
?eval@?$Add@Uvec4@tnvx@@U?$Mul@U?$Sub@Uvec4@tnvx@@U12@@tnvx@@UScalar@2@@2@@tnvx@@QEBA?AT__m128@@XZ ENDP ; tnvx::Add<tnvx::vec4,tnvx::Mul<tnvx::Sub<tnvx::vec4,tnvx::vec4>,tnvx::Scalar> >::eval
_TEXT	ENDS
; Function compile flags: /Ogtpy
;	COMDAT ??$?0U?$Add@Uvec4@tnvx@@U?$Mul@U?$Sub@Uvec4@tnvx@@U12@@tnvx@@UScalar@2@@2@@tnvx@@@vec4@tnvx@@QEAA@AEBU?$Add@Uvec4@tnvx@@U?$Mul@U?$Sub@Uvec4@tnvx@@U12@@tnvx@@UScalar@2@@2@@1@@Z
_TEXT	SEGMENT
this$ = 8
e$ = 16
??$?0U?$Add@Uvec4@tnvx@@U?$Mul@U?$Sub@Uvec4@tnvx@@U12@@tnvx@@UScalar@2@@2@@tnvx@@@vec4@tnvx@@QEAA@AEBU?$Add@Uvec4@tnvx@@U?$Mul@U?$Sub@Uvec4@tnvx@@U12@@tnvx@@UScalar@2@@2@@1@@Z PROC ; tnvx::vec4::vec4<tnvx::Add<tnvx::vec4,tnvx::Mul<tnvx::Sub<tnvx::vec4,tnvx::vec4>,tnvx::Scalar> > >, COMDAT
; File C:\Users\artem.zyktin\projects\tenvex\src\tenvex\expressions\vec\vec4_impl.hpp
; File C:\Users\artem.zyktin\projects\tenvex\src\tenvex\expressions\common\add_impl.hpp
; Line 22
	mov	r8, QWORD PTR [rdx+16]
; File C:\Users\artem.zyktin\projects\tenvex\src\tenvex\expressions\common\mul_impl.hpp
; Line 22
	mov	rax, QWORD PTR [r8]
; File C:\Users\artem.zyktin\projects\tenvex\src\tenvex\expressions\core\core_sse.h
; Line 95
	movups	xmm0, XMMWORD PTR [rax]
	subps	xmm0, XMMWORD PTR [rax+16]
; File C:\Users\artem.zyktin\projects\tenvex\src\tenvex\expressions\vec\vec4_impl.hpp
; Line 60
	mov	rax, rcx
; File C:\Users\artem.zyktin\projects\tenvex\src\tenvex\expressions\core\core_sse.h
; Line 101
	mulps	xmm0, XMMWORD PTR [r8+16]
; Line 89
	addps	xmm0, XMMWORD PTR [rdx]
; File C:\Users\artem.zyktin\projects\tenvex\src\tenvex\expressions\common\add_impl.hpp
; Line 22
	movups	XMMWORD PTR [rcx], xmm0
; File C:\Users\artem.zyktin\projects\tenvex\src\tenvex\expressions\vec\vec4_impl.hpp
; Line 60
	ret	0
??$?0U?$Add@Uvec4@tnvx@@U?$Mul@U?$Sub@Uvec4@tnvx@@U12@@tnvx@@UScalar@2@@2@@tnvx@@@vec4@tnvx@@QEAA@AEBU?$Add@Uvec4@tnvx@@U?$Mul@U?$Sub@Uvec4@tnvx@@U12@@tnvx@@UScalar@2@@2@@1@@Z ENDP ; tnvx::vec4::vec4<tnvx::Add<tnvx::vec4,tnvx::Mul<tnvx::Sub<tnvx::vec4,tnvx::vec4>,tnvx::Scalar> > >
_TEXT	ENDS
; Function compile flags: /Ogtpy
;	COMDAT ??$max@Uvec4@tnvx@@U12@@tnvx@@YA?AU?$Max@Uvec4@tnvx@@U12@@0@AEBUvec4@0@0@Z
_TEXT	SEGMENT
__$ReturnUdt$ = 8
l$ = 16
r$ = 24
??$max@Uvec4@tnvx@@U12@@tnvx@@YA?AU?$Max@Uvec4@tnvx@@U12@@0@AEBUvec4@0@0@Z PROC ; tnvx::max<tnvx::vec4,tnvx::vec4>, COMDAT
; File C:\Users\artem.zyktin\projects\tenvex\src\tenvex\expressions\vec\max_impl.hpp
; Line 11
	movaps	xmm0, XMMWORD PTR [rdx]
; Line 28
	mov	rax, rcx
; Line 12
	movaps	xmm1, XMMWORD PTR [r8]
	movups	XMMWORD PTR [rcx], xmm0
	movups	XMMWORD PTR [rcx+16], xmm1
; Line 29
	ret	0
??$max@Uvec4@tnvx@@U12@@tnvx@@YA?AU?$Max@Uvec4@tnvx@@U12@@0@AEBUvec4@0@0@Z ENDP ; tnvx::max<tnvx::vec4,tnvx::vec4>
_TEXT	ENDS
; Function compile flags: /Ogtpy
;	COMDAT ??0?$Max@Uvec4@tnvx@@U12@@tnvx@@QEAA@AEIBUvec4@1@0@Z
_TEXT	SEGMENT
this$ = 8
l$ = 16
r$ = 24
??0?$Max@Uvec4@tnvx@@U12@@tnvx@@QEAA@AEIBUvec4@1@0@Z PROC ; tnvx::Max<tnvx::vec4,tnvx::vec4>::Max<tnvx::vec4,tnvx::vec4>, COMDAT
; File C:\Users\artem.zyktin\projects\tenvex\src\tenvex\expressions\vec\max_impl.hpp
; Line 11
	movaps	xmm0, XMMWORD PTR [rdx]
; Line 14
	mov	rax, rcx
	movaps	xmm1, XMMWORD PTR [r8]
	movups	XMMWORD PTR [rcx], xmm0
	movups	XMMWORD PTR [rcx+16], xmm1
	ret	0
??0?$Max@Uvec4@tnvx@@U12@@tnvx@@QEAA@AEIBUvec4@1@0@Z ENDP ; tnvx::Max<tnvx::vec4,tnvx::vec4>::Max<tnvx::vec4,tnvx::vec4>
_TEXT	ENDS
; Function compile flags: /Ogtpy
;	COMDAT ?eval@?$Max@Uvec4@tnvx@@U12@@tnvx@@QEBA?AT__m128@@XZ
_TEXT	SEGMENT
this$ = 8
__$ReturnUdt$ = 16
?eval@?$Max@Uvec4@tnvx@@U12@@tnvx@@QEBA?AT__m128@@XZ PROC ; tnvx::Max<tnvx::vec4,tnvx::vec4>::eval, COMDAT
; File C:\Users\artem.zyktin\projects\tenvex\src\tenvex\expressions\vec\max_impl.hpp
; File C:\Users\artem.zyktin\projects\tenvex\src\tenvex\expressions\core\core_sse.h
; Line 175
	movups	xmm0, XMMWORD PTR [rcx]
; File C:\Users\artem.zyktin\projects\tenvex\src\tenvex\expressions\vec\max_impl.hpp
; Line 20
	mov	rax, rdx
; File C:\Users\artem.zyktin\projects\tenvex\src\tenvex\expressions\core\core_sse.h
; Line 175
	maxps	xmm0, XMMWORD PTR [rcx+16]
; File C:\Users\artem.zyktin\projects\tenvex\src\tenvex\expressions\vec\max_impl.hpp
; Line 20
	movups	XMMWORD PTR [rdx], xmm0
; Line 21
	ret	0
?eval@?$Max@Uvec4@tnvx@@U12@@tnvx@@QEBA?AT__m128@@XZ ENDP ; tnvx::Max<tnvx::vec4,tnvx::vec4>::eval
_TEXT	ENDS
; Function compile flags: /Ogtpy
;	COMDAT ??$min@U?$Max@Uvec4@tnvx@@U12@@tnvx@@Uvec4@2@@tnvx@@YA?AU?$Min@U?$Max@Uvec4@tnvx@@U12@@tnvx@@Uvec4@2@@0@AEBU?$Max@Uvec4@tnvx@@U12@@0@AEBUvec4@0@@Z
_TEXT	SEGMENT
__$ReturnUdt$ = 8
l$ = 16
r$ = 24
??$min@U?$Max@Uvec4@tnvx@@U12@@tnvx@@Uvec4@2@@tnvx@@YA?AU?$Min@U?$Max@Uvec4@tnvx@@U12@@tnvx@@Uvec4@2@@0@AEBU?$Max@Uvec4@tnvx@@U12@@0@AEBUvec4@0@@Z PROC ; tnvx::min<tnvx::Max<tnvx::vec4,tnvx::vec4>,tnvx::vec4>, COMDAT
; File C:\Users\artem.zyktin\projects\tenvex\src\tenvex\expressions\vec\min_impl.hpp
; Line 12
	movaps	xmm0, XMMWORD PTR [r8]
; Line 27
	mov	rax, rcx
; Line 12
	movups	XMMWORD PTR [rcx+16], xmm0
	mov	QWORD PTR [rcx], rdx
; Line 28
	ret	0
??$min@U?$Max@Uvec4@tnvx@@U12@@tnvx@@Uvec4@2@@tnvx@@YA?AU?$Min@U?$Max@Uvec4@tnvx@@U12@@tnvx@@Uvec4@2@@0@AEBU?$Max@Uvec4@tnvx@@U12@@0@AEBUvec4@0@@Z ENDP ; tnvx::min<tnvx::Max<tnvx::vec4,tnvx::vec4>,tnvx::vec4>
_TEXT	ENDS
; Function compile flags: /Ogtpy
;	COMDAT ??0?$Min@U?$Max@Uvec4@tnvx@@U12@@tnvx@@Uvec4@2@@tnvx@@QEAA@AEIBU?$Max@Uvec4@tnvx@@U12@@1@AEIBUvec4@1@@Z
_TEXT	SEGMENT
this$ = 8
l$ = 16
r$ = 24
??0?$Min@U?$Max@Uvec4@tnvx@@U12@@tnvx@@Uvec4@2@@tnvx@@QEAA@AEIBU?$Max@Uvec4@tnvx@@U12@@1@AEIBUvec4@1@@Z PROC ; tnvx::Min<tnvx::Max<tnvx::vec4,tnvx::vec4>,tnvx::vec4>::Min<tnvx::Max<tnvx::vec4,tnvx::vec4>,tnvx::vec4>, COMDAT
; File C:\Users\artem.zyktin\projects\tenvex\src\tenvex\expressions\vec\min_impl.hpp
; Line 12
	movaps	xmm0, XMMWORD PTR [r8]
; Line 14
	mov	rax, rcx
	movups	XMMWORD PTR [rcx+16], xmm0
	mov	QWORD PTR [rcx], rdx
	ret	0
??0?$Min@U?$Max@Uvec4@tnvx@@U12@@tnvx@@Uvec4@2@@tnvx@@QEAA@AEIBU?$Max@Uvec4@tnvx@@U12@@1@AEIBUvec4@1@@Z ENDP ; tnvx::Min<tnvx::Max<tnvx::vec4,tnvx::vec4>,tnvx::vec4>::Min<tnvx::Max<tnvx::vec4,tnvx::vec4>,tnvx::vec4>
_TEXT	ENDS
; Function compile flags: /Ogtpy
;	COMDAT ?eval@?$Min@U?$Max@Uvec4@tnvx@@U12@@tnvx@@Uvec4@2@@tnvx@@QEBA?AT__m128@@XZ
_TEXT	SEGMENT
this$ = 8
__$ReturnUdt$ = 16
?eval@?$Min@U?$Max@Uvec4@tnvx@@U12@@tnvx@@Uvec4@2@@tnvx@@QEBA?AT__m128@@XZ PROC ; tnvx::Min<tnvx::Max<tnvx::vec4,tnvx::vec4>,tnvx::vec4>::eval, COMDAT
; File C:\Users\artem.zyktin\projects\tenvex\src\tenvex\expressions\vec\min_impl.hpp
; Line 20
	mov	rax, QWORD PTR [rcx]
; File C:\Users\artem.zyktin\projects\tenvex\src\tenvex\expressions\core\core_sse.h
; Line 175
	movups	xmm0, XMMWORD PTR [rax]
	maxps	xmm0, XMMWORD PTR [rax+16]
; File C:\Users\artem.zyktin\projects\tenvex\src\tenvex\expressions\vec\min_impl.hpp
; Line 20
	mov	rax, rdx
; File C:\Users\artem.zyktin\projects\tenvex\src\tenvex\expressions\core\core_sse.h
; Line 181
	minps	xmm0, XMMWORD PTR [rcx+16]
; File C:\Users\artem.zyktin\projects\tenvex\src\tenvex\expressions\vec\min_impl.hpp
; Line 20
	movups	XMMWORD PTR [rdx], xmm0
; Line 21
	ret	0
?eval@?$Min@U?$Max@Uvec4@tnvx@@U12@@tnvx@@Uvec4@2@@tnvx@@QEBA?AT__m128@@XZ ENDP ; tnvx::Min<tnvx::Max<tnvx::vec4,tnvx::vec4>,tnvx::vec4>::eval
_TEXT	ENDS
; Function compile flags: /Ogtpy
;	COMDAT ??$?0U?$Min@U?$Max@Uvec4@tnvx@@U12@@tnvx@@Uvec4@2@@tnvx@@@vec4@tnvx@@QEAA@AEBU?$Min@U?$Max@Uvec4@tnvx@@U12@@tnvx@@Uvec4@2@@1@@Z
_TEXT	SEGMENT
this$ = 8
e$ = 16
??$?0U?$Min@U?$Max@Uvec4@tnvx@@U12@@tnvx@@Uvec4@2@@tnvx@@@vec4@tnvx@@QEAA@AEBU?$Min@U?$Max@Uvec4@tnvx@@U12@@tnvx@@Uvec4@2@@1@@Z PROC ; tnvx::vec4::vec4<tnvx::Min<tnvx::Max<tnvx::vec4,tnvx::vec4>,tnvx::vec4> >, COMDAT
; File C:\Users\artem.zyktin\projects\tenvex\src\tenvex\expressions\vec\vec4_impl.hpp
; File C:\Users\artem.zyktin\projects\tenvex\src\tenvex\expressions\vec\min_impl.hpp
; Line 20
	mov	rax, QWORD PTR [rdx]
; File C:\Users\artem.zyktin\projects\tenvex\src\tenvex\expressions\core\core_sse.h
; Line 175
	movups	xmm0, XMMWORD PTR [rax]
	maxps	xmm0, XMMWORD PTR [rax+16]
; File C:\Users\artem.zyktin\projects\tenvex\src\tenvex\expressions\vec\vec4_impl.hpp
; Line 60
	mov	rax, rcx
; File C:\Users\artem.zyktin\projects\tenvex\src\tenvex\expressions\core\core_sse.h
; Line 181
	minps	xmm0, XMMWORD PTR [rdx+16]
; File C:\Users\artem.zyktin\projects\tenvex\src\tenvex\expressions\vec\min_impl.hpp
; Line 20
	movups	XMMWORD PTR [rcx], xmm0
; File C:\Users\artem.zyktin\projects\tenvex\src\tenvex\expressions\vec\vec4_impl.hpp
; Line 60
	ret	0
??$?0U?$Min@U?$Max@Uvec4@tnvx@@U12@@tnvx@@Uvec4@2@@tnvx@@@vec4@tnvx@@QEAA@AEBU?$Min@U?$Max@Uvec4@tnvx@@U12@@tnvx@@Uvec4@2@@1@@Z ENDP ; tnvx::vec4::vec4<tnvx::Min<tnvx::Max<tnvx::vec4,tnvx::vec4>,tnvx::vec4> >
_TEXT	ENDS
; Function compile flags: /Ogtpy
;	COMDAT ??$?DU?$Dot3@Uvec4@tnvx@@U12@@tnvx@@@tnvx@@YA?AU?$Mul@U?$Dot3@Uvec4@tnvx@@U12@@tnvx@@UScalar@2@@0@AEBU?$Dot3@Uvec4@tnvx@@U12@@0@M@Z
_TEXT	SEGMENT
__$ReturnUdt$ = 8
l$ = 16
r$ = 24
??$?DU?$Dot3@Uvec4@tnvx@@U12@@tnvx@@@tnvx@@YA?AU?$Mul@U?$Dot3@Uvec4@tnvx@@U12@@tnvx@@UScalar@2@@0@AEBU?$Dot3@Uvec4@tnvx@@U12@@0@M@Z PROC ; tnvx::operator*<tnvx::Dot3<tnvx::vec4,tnvx::vec4> >, COMDAT
; File C:\Users\artem.zyktin\projects\tenvex\src\tenvex\expressions\common\mul_impl.hpp
; File C:\Users\artem.zyktin\projects\tenvex\src\tenvex\expressions\core\core_sse.h
; Line 58
	shufps	xmm2, xmm2, 0
; File C:\Users\artem.zyktin\projects\tenvex\src\tenvex\expressions\common\mul_impl.hpp
; Line 64
	mov	rax, rcx
; Line 13
	movups	XMMWORD PTR [rcx+16], xmm2
	mov	QWORD PTR [rcx], rdx
; Line 65
	ret	0
??$?DU?$Dot3@Uvec4@tnvx@@U12@@tnvx@@@tnvx@@YA?AU?$Mul@U?$Dot3@Uvec4@tnvx@@U12@@tnvx@@UScalar@2@@0@AEBU?$Dot3@Uvec4@tnvx@@U12@@0@M@Z ENDP ; tnvx::operator*<tnvx::Dot3<tnvx::vec4,tnvx::vec4> >
_TEXT	ENDS
; Function compile flags: /Ogtpy
;	COMDAT ??0?$Mul@U?$Dot3@Uvec4@tnvx@@U12@@tnvx@@UScalar@2@@tnvx@@QEAA@AEIBU?$Dot3@Uvec4@tnvx@@U12@@1@AEIBUScalar@1@@Z
_TEXT	SEGMENT
this$ = 8
l$ = 16
r$ = 24
??0?$Mul@U?$Dot3@Uvec4@tnvx@@U12@@tnvx@@UScalar@2@@tnvx@@QEAA@AEIBU?$Dot3@Uvec4@tnvx@@U12@@1@AEIBUScalar@1@@Z PROC ; tnvx::Mul<tnvx::Dot3<tnvx::vec4,tnvx::vec4>,tnvx::Scalar>::Mul<tnvx::Dot3<tnvx::vec4,tnvx::vec4>,tnvx::Scalar>, COMDAT
; File C:\Users\artem.zyktin\projects\tenvex\src\tenvex\expressions\common\mul_impl.hpp
; Line 13
	movaps	xmm0, XMMWORD PTR [r8]
; Line 15
	mov	rax, rcx
	movups	XMMWORD PTR [rcx+16], xmm0
	mov	QWORD PTR [rcx], rdx
	ret	0
??0?$Mul@U?$Dot3@Uvec4@tnvx@@U12@@tnvx@@UScalar@2@@tnvx@@QEAA@AEIBU?$Dot3@Uvec4@tnvx@@U12@@1@AEIBUScalar@1@@Z ENDP ; tnvx::Mul<tnvx::Dot3<tnvx::vec4,tnvx::vec4>,tnvx::Scalar>::Mul<tnvx::Dot3<tnvx::vec4,tnvx::vec4>,tnvx::Scalar>
_TEXT	ENDS
; Function compile flags: /Ogtpy
;	COMDAT ?eval@?$Mul@U?$Dot3@Uvec4@tnvx@@U12@@tnvx@@UScalar@2@@tnvx@@QEBA?AT__m128@@XZ
_TEXT	SEGMENT
this$ = 8
__$ReturnUdt$ = 16
?eval@?$Mul@U?$Dot3@Uvec4@tnvx@@U12@@tnvx@@UScalar@2@@tnvx@@QEBA?AT__m128@@XZ PROC ; tnvx::Mul<tnvx::Dot3<tnvx::vec4,tnvx::vec4>,tnvx::Scalar>::eval, COMDAT
; File C:\Users\artem.zyktin\projects\tenvex\src\tenvex\expressions\common\mul_impl.hpp
; Line 22
	mov	rax, QWORD PTR [rcx]
; File C:\Users\artem.zyktin\projects\tenvex\src\tenvex\expressions\core\core_sse.h
; Line 114
	movups	xmm1, XMMWORD PTR [rax+16]
	mulps	xmm1, XMMWORD PTR [rax]
; File C:\Users\artem.zyktin\projects\tenvex\src\tenvex\expressions\common\mul_impl.hpp
; Line 22
	mov	rax, rdx
; File C:\Users\artem.zyktin\projects\tenvex\src\tenvex\expressions\core\core_sse.h
; Line 116
	movaps	xmm2, xmm1
	movaps	xmm0, xmm1
	shufps	xmm0, xmm1, 85				; 00000055H
	addss	xmm2, xmm0
; Line 117
	movhlps	xmm1, xmm1
; Line 118
	addss	xmm2, xmm1
; Line 119
	shufps	xmm2, xmm2, 0
; Line 101
	mulps	xmm2, XMMWORD PTR [rcx+16]
; File C:\Users\artem.zyktin\projects\tenvex\src\tenvex\expressions\common\mul_impl.hpp
; Line 22
	movups	XMMWORD PTR [rdx], xmm2
; Line 23
	ret	0
?eval@?$Mul@U?$Dot3@Uvec4@tnvx@@U12@@tnvx@@UScalar@2@@tnvx@@QEBA?AT__m128@@XZ ENDP ; tnvx::Mul<tnvx::Dot3<tnvx::vec4,tnvx::vec4>,tnvx::Scalar>::eval
_TEXT	ENDS
; Function compile flags: /Ogtpy
;	COMDAT ??$?DUvec4@tnvx@@U?$Mul@U?$Dot3@Uvec4@tnvx@@U12@@tnvx@@UScalar@2@@1@@tnvx@@YA?AU?$Mul@Uvec4@tnvx@@U?$Mul@U?$Dot3@Uvec4@tnvx@@U12@@tnvx@@UScalar@2@@2@@0@AEBUvec4@0@AEBU?$Mul@U?$Dot3@Uvec4@tnvx@@U12@@tnvx@@UScalar@2@@0@@Z
_TEXT	SEGMENT
__$ReturnUdt$ = 8
l$ = 16
r$ = 24
??$?DUvec4@tnvx@@U?$Mul@U?$Dot3@Uvec4@tnvx@@U12@@tnvx@@UScalar@2@@1@@tnvx@@YA?AU?$Mul@Uvec4@tnvx@@U?$Mul@U?$Dot3@Uvec4@tnvx@@U12@@tnvx@@UScalar@2@@2@@0@AEBUvec4@0@AEBU?$Mul@U?$Dot3@Uvec4@tnvx@@U12@@tnvx@@UScalar@2@@0@@Z PROC ; tnvx::operator*<tnvx::vec4,tnvx::Mul<tnvx::Dot3<tnvx::vec4,tnvx::vec4>,tnvx::Scalar> >, COMDAT
; File C:\Users\artem.zyktin\projects\tenvex\src\tenvex\expressions\common\mul_impl.hpp
; Line 12
	movaps	xmm0, XMMWORD PTR [rdx]
; Line 57
	mov	rax, rcx
; Line 12
	movups	XMMWORD PTR [rcx], xmm0
; Line 13
	mov	QWORD PTR [rcx+16], r8
; Line 58
	ret	0
??$?DUvec4@tnvx@@U?$Mul@U?$Dot3@Uvec4@tnvx@@U12@@tnvx@@UScalar@2@@1@@tnvx@@YA?AU?$Mul@Uvec4@tnvx@@U?$Mul@U?$Dot3@Uvec4@tnvx@@U12@@tnvx@@UScalar@2@@2@@0@AEBUvec4@0@AEBU?$Mul@U?$Dot3@Uvec4@tnvx@@U12@@tnvx@@UScalar@2@@0@@Z ENDP ; tnvx::operator*<tnvx::vec4,tnvx::Mul<tnvx::Dot3<tnvx::vec4,tnvx::vec4>,tnvx::Scalar> >
_TEXT	ENDS
; Function compile flags: /Ogtpy
;	COMDAT ??0?$Mul@Uvec4@tnvx@@U?$Mul@U?$Dot3@Uvec4@tnvx@@U12@@tnvx@@UScalar@2@@2@@tnvx@@QEAA@AEIBUvec4@1@AEIBU?$Mul@U?$Dot3@Uvec4@tnvx@@U12@@tnvx@@UScalar@2@@1@@Z
_TEXT	SEGMENT
this$ = 8
l$ = 16
r$ = 24
??0?$Mul@Uvec4@tnvx@@U?$Mul@U?$Dot3@Uvec4@tnvx@@U12@@tnvx@@UScalar@2@@2@@tnvx@@QEAA@AEIBUvec4@1@AEIBU?$Mul@U?$Dot3@Uvec4@tnvx@@U12@@tnvx@@UScalar@2@@1@@Z PROC ; tnvx::Mul<tnvx::vec4,tnvx::Mul<tnvx::Dot3<tnvx::vec4,tnvx::vec4>,tnvx::Scalar> >::Mul<tnvx::vec4,tnvx::Mul<tnvx::Dot3<tnvx::vec4,tnvx::vec4>,tnvx::Scalar> >, COMDAT
; File C:\Users\artem.zyktin\projects\tenvex\src\tenvex\expressions\common\mul_impl.hpp
; Line 12
	movaps	xmm0, XMMWORD PTR [rdx]
; Line 15
	mov	rax, rcx
	movups	XMMWORD PTR [rcx], xmm0
	mov	QWORD PTR [rcx+16], r8
	ret	0
??0?$Mul@Uvec4@tnvx@@U?$Mul@U?$Dot3@Uvec4@tnvx@@U12@@tnvx@@UScalar@2@@2@@tnvx@@QEAA@AEIBUvec4@1@AEIBU?$Mul@U?$Dot3@Uvec4@tnvx@@U12@@tnvx@@UScalar@2@@1@@Z ENDP ; tnvx::Mul<tnvx::vec4,tnvx::Mul<tnvx::Dot3<tnvx::vec4,tnvx::vec4>,tnvx::Scalar> >::Mul<tnvx::vec4,tnvx::Mul<tnvx::Dot3<tnvx::vec4,tnvx::vec4>,tnvx::Scalar> >
_TEXT	ENDS
; Function compile flags: /Ogtpy
;	COMDAT ?eval@?$Mul@Uvec4@tnvx@@U?$Mul@U?$Dot3@Uvec4@tnvx@@U12@@tnvx@@UScalar@2@@2@@tnvx@@QEBA?AT__m128@@XZ
_TEXT	SEGMENT
this$ = 8
__$ReturnUdt$ = 16
?eval@?$Mul@Uvec4@tnvx@@U?$Mul@U?$Dot3@Uvec4@tnvx@@U12@@tnvx@@UScalar@2@@2@@tnvx@@QEBA?AT__m128@@XZ PROC ; tnvx::Mul<tnvx::vec4,tnvx::Mul<tnvx::Dot3<tnvx::vec4,tnvx::vec4>,tnvx::Scalar> >::eval, COMDAT
; File C:\Users\artem.zyktin\projects\tenvex\src\tenvex\expressions\common\mul_impl.hpp
; Line 22
	mov	r8, QWORD PTR [rcx+16]
	mov	rax, QWORD PTR [r8]
; File C:\Users\artem.zyktin\projects\tenvex\src\tenvex\expressions\core\core_sse.h
; Line 114
	movups	xmm1, XMMWORD PTR [rax+16]
	mulps	xmm1, XMMWORD PTR [rax]
; File C:\Users\artem.zyktin\projects\tenvex\src\tenvex\expressions\common\mul_impl.hpp
; Line 22
	mov	rax, rdx
; File C:\Users\artem.zyktin\projects\tenvex\src\tenvex\expressions\core\core_sse.h
; Line 116
	movaps	xmm2, xmm1
	movaps	xmm0, xmm1
	shufps	xmm0, xmm1, 85				; 00000055H
	addss	xmm2, xmm0
; Line 117
	movhlps	xmm1, xmm1
; Line 118
	addss	xmm2, xmm1
; Line 119
	shufps	xmm2, xmm2, 0
; Line 101
	mulps	xmm2, XMMWORD PTR [r8+16]
	mulps	xmm2, XMMWORD PTR [rcx]
; File C:\Users\artem.zyktin\projects\tenvex\src\tenvex\expressions\common\mul_impl.hpp
; Line 22
	movups	XMMWORD PTR [rdx], xmm2
; Line 23
	ret	0
?eval@?$Mul@Uvec4@tnvx@@U?$Mul@U?$Dot3@Uvec4@tnvx@@U12@@tnvx@@UScalar@2@@2@@tnvx@@QEBA?AT__m128@@XZ ENDP ; tnvx::Mul<tnvx::vec4,tnvx::Mul<tnvx::Dot3<tnvx::vec4,tnvx::vec4>,tnvx::Scalar> >::eval
_TEXT	ENDS
; Function compile flags: /Ogtpy
;	COMDAT ??$?GUvec4@tnvx@@U?$Mul@Uvec4@tnvx@@U?$Mul@U?$Dot3@Uvec4@tnvx@@U12@@tnvx@@UScalar@2@@2@@1@@tnvx@@YA?AU?$Sub@Uvec4@tnvx@@U?$Mul@Uvec4@tnvx@@U?$Mul@U?$Dot3@Uvec4@tnvx@@U12@@tnvx@@UScalar@2@@2@@2@@0@AEBUvec4@0@AEBU?$Mul@Uvec4@tnvx@@U?$Mul@U?$Dot3@Uvec4@tnvx@@U12@@tnvx@@UScalar@2@@2@@0@@Z
_TEXT	SEGMENT
__$ReturnUdt$ = 8
l$ = 16
r$ = 24
??$?GUvec4@tnvx@@U?$Mul@Uvec4@tnvx@@U?$Mul@U?$Dot3@Uvec4@tnvx@@U12@@tnvx@@UScalar@2@@2@@1@@tnvx@@YA?AU?$Sub@Uvec4@tnvx@@U?$Mul@Uvec4@tnvx@@U?$Mul@U?$Dot3@Uvec4@tnvx@@U12@@tnvx@@UScalar@2@@2@@2@@0@AEBUvec4@0@AEBU?$Mul@Uvec4@tnvx@@U?$Mul@U?$Dot3@Uvec4@tnvx@@U12@@tnvx@@UScalar@2@@2@@0@@Z PROC ; tnvx::operator-<tnvx::vec4,tnvx::Mul<tnvx::vec4,tnvx::Mul<tnvx::Dot3<tnvx::vec4,tnvx::vec4>,tnvx::Scalar> > >, COMDAT
; File C:\Users\artem.zyktin\projects\tenvex\src\tenvex\expressions\common\sub_impl.hpp
; Line 12
	movaps	xmm0, XMMWORD PTR [rdx]
; Line 38
	mov	rax, rcx
; Line 12
	movups	XMMWORD PTR [rcx], xmm0
; Line 13
	mov	QWORD PTR [rcx+16], r8
; Line 39
	ret	0
??$?GUvec4@tnvx@@U?$Mul@Uvec4@tnvx@@U?$Mul@U?$Dot3@Uvec4@tnvx@@U12@@tnvx@@UScalar@2@@2@@1@@tnvx@@YA?AU?$Sub@Uvec4@tnvx@@U?$Mul@Uvec4@tnvx@@U?$Mul@U?$Dot3@Uvec4@tnvx@@U12@@tnvx@@UScalar@2@@2@@2@@0@AEBUvec4@0@AEBU?$Mul@Uvec4@tnvx@@U?$Mul@U?$Dot3@Uvec4@tnvx@@U12@@tnvx@@UScalar@2@@2@@0@@Z ENDP ; tnvx::operator-<tnvx::vec4,tnvx::Mul<tnvx::vec4,tnvx::Mul<tnvx::Dot3<tnvx::vec4,tnvx::vec4>,tnvx::Scalar> > >
_TEXT	ENDS
; Function compile flags: /Ogtpy
;	COMDAT ??0?$Sub@Uvec4@tnvx@@U?$Mul@Uvec4@tnvx@@U?$Mul@U?$Dot3@Uvec4@tnvx@@U12@@tnvx@@UScalar@2@@2@@2@@tnvx@@QEAA@AEIBUvec4@1@AEIBU?$Mul@Uvec4@tnvx@@U?$Mul@U?$Dot3@Uvec4@tnvx@@U12@@tnvx@@UScalar@2@@2@@1@@Z
_TEXT	SEGMENT
this$ = 8
l$ = 16
r$ = 24
??0?$Sub@Uvec4@tnvx@@U?$Mul@Uvec4@tnvx@@U?$Mul@U?$Dot3@Uvec4@tnvx@@U12@@tnvx@@UScalar@2@@2@@2@@tnvx@@QEAA@AEIBUvec4@1@AEIBU?$Mul@Uvec4@tnvx@@U?$Mul@U?$Dot3@Uvec4@tnvx@@U12@@tnvx@@UScalar@2@@2@@1@@Z PROC ; tnvx::Sub<tnvx::vec4,tnvx::Mul<tnvx::vec4,tnvx::Mul<tnvx::Dot3<tnvx::vec4,tnvx::vec4>,tnvx::Scalar> > >::Sub<tnvx::vec4,tnvx::Mul<tnvx::vec4,tnvx::Mul<tnvx::Dot3<tnvx::vec4,tnvx::vec4>,tnvx::Scalar> > >, COMDAT
; File C:\Users\artem.zyktin\projects\tenvex\src\tenvex\expressions\common\sub_impl.hpp
; Line 12
	movaps	xmm0, XMMWORD PTR [rdx]
; Line 15
	mov	rax, rcx
	movups	XMMWORD PTR [rcx], xmm0
	mov	QWORD PTR [rcx+16], r8
	ret	0
??0?$Sub@Uvec4@tnvx@@U?$Mul@Uvec4@tnvx@@U?$Mul@U?$Dot3@Uvec4@tnvx@@U12@@tnvx@@UScalar@2@@2@@2@@tnvx@@QEAA@AEIBUvec4@1@AEIBU?$Mul@Uvec4@tnvx@@U?$Mul@U?$Dot3@Uvec4@tnvx@@U12@@tnvx@@UScalar@2@@2@@1@@Z ENDP ; tnvx::Sub<tnvx::vec4,tnvx::Mul<tnvx::vec4,tnvx::Mul<tnvx::Dot3<tnvx::vec4,tnvx::vec4>,tnvx::Scalar> > >::Sub<tnvx::vec4,tnvx::Mul<tnvx::vec4,tnvx::Mul<tnvx::Dot3<tnvx::vec4,tnvx::vec4>,tnvx::Scalar> > >
_TEXT	ENDS
; Function compile flags: /Ogtpy
;	COMDAT ?eval@?$Sub@Uvec4@tnvx@@U?$Mul@Uvec4@tnvx@@U?$Mul@U?$Dot3@Uvec4@tnvx@@U12@@tnvx@@UScalar@2@@2@@2@@tnvx@@QEBA?AT__m128@@XZ
_TEXT	SEGMENT
this$ = 8
__$ReturnUdt$ = 16
?eval@?$Sub@Uvec4@tnvx@@U?$Mul@Uvec4@tnvx@@U?$Mul@U?$Dot3@Uvec4@tnvx@@U12@@tnvx@@UScalar@2@@2@@2@@tnvx@@QEBA?AT__m128@@XZ PROC ; tnvx::Sub<tnvx::vec4,tnvx::Mul<tnvx::vec4,tnvx::Mul<tnvx::Dot3<tnvx::vec4,tnvx::vec4>,tnvx::Scalar> > >::eval, COMDAT
; File C:\Users\artem.zyktin\projects\tenvex\src\tenvex\expressions\common\sub_impl.hpp
; Line 22
	mov	r9, QWORD PTR [rcx+16]
; File C:\Users\artem.zyktin\projects\tenvex\src\tenvex\expressions\common\mul_impl.hpp
; Line 22
	mov	r8, QWORD PTR [r9+16]
	mov	rax, QWORD PTR [r8]
; File C:\Users\artem.zyktin\projects\tenvex\src\tenvex\expressions\core\core_sse.h
; Line 114
	movups	xmm1, XMMWORD PTR [rax+16]
	mulps	xmm1, XMMWORD PTR [rax]
; File C:\Users\artem.zyktin\projects\tenvex\src\tenvex\expressions\common\sub_impl.hpp
; Line 22
	mov	rax, rdx
; File C:\Users\artem.zyktin\projects\tenvex\src\tenvex\expressions\core\core_sse.h
; Line 116
	movaps	xmm2, xmm1
	movaps	xmm0, xmm1
	shufps	xmm0, xmm1, 85				; 00000055H
	addss	xmm2, xmm0
; Line 117
	movhlps	xmm1, xmm1
; Line 95
	movups	xmm0, XMMWORD PTR [rcx]
; Line 118
	addss	xmm2, xmm1
; Line 119
	shufps	xmm2, xmm2, 0
; Line 101
	mulps	xmm2, XMMWORD PTR [r8+16]
	mulps	xmm2, XMMWORD PTR [r9]
; Line 95
	subps	xmm0, xmm2
; File C:\Users\artem.zyktin\projects\tenvex\src\tenvex\expressions\common\sub_impl.hpp
; Line 22
	movups	XMMWORD PTR [rdx], xmm0
; Line 23
	ret	0
?eval@?$Sub@Uvec4@tnvx@@U?$Mul@Uvec4@tnvx@@U?$Mul@U?$Dot3@Uvec4@tnvx@@U12@@tnvx@@UScalar@2@@2@@2@@tnvx@@QEBA?AT__m128@@XZ ENDP ; tnvx::Sub<tnvx::vec4,tnvx::Mul<tnvx::vec4,tnvx::Mul<tnvx::Dot3<tnvx::vec4,tnvx::vec4>,tnvx::Scalar> > >::eval
_TEXT	ENDS
; Function compile flags: /Ogtpy
;	COMDAT ??$?0U?$Sub@Uvec4@tnvx@@U?$Mul@Uvec4@tnvx@@U?$Mul@U?$Dot3@Uvec4@tnvx@@U12@@tnvx@@UScalar@2@@2@@2@@tnvx@@@vec4@tnvx@@QEAA@AEBU?$Sub@Uvec4@tnvx@@U?$Mul@Uvec4@tnvx@@U?$Mul@U?$Dot3@Uvec4@tnvx@@U12@@tnvx@@UScalar@2@@2@@2@@1@@Z
_TEXT	SEGMENT
this$ = 8
e$ = 16
??$?0U?$Sub@Uvec4@tnvx@@U?$Mul@Uvec4@tnvx@@U?$Mul@U?$Dot3@Uvec4@tnvx@@U12@@tnvx@@UScalar@2@@2@@2@@tnvx@@@vec4@tnvx@@QEAA@AEBU?$Sub@Uvec4@tnvx@@U?$Mul@Uvec4@tnvx@@U?$Mul@U?$Dot3@Uvec4@tnvx@@U12@@tnvx@@UScalar@2@@2@@2@@1@@Z PROC ; tnvx::vec4::vec4<tnvx::Sub<tnvx::vec4,tnvx::Mul<tnvx::vec4,tnvx::Mul<tnvx::Dot3<tnvx::vec4,tnvx::vec4>,tnvx::Scalar> > > >, COMDAT
; File C:\Users\artem.zyktin\projects\tenvex\src\tenvex\expressions\vec\vec4_impl.hpp
; File C:\Users\artem.zyktin\projects\tenvex\src\tenvex\expressions\common\sub_impl.hpp
; Line 22
	mov	r9, QWORD PTR [rdx+16]
; File C:\Users\artem.zyktin\projects\tenvex\src\tenvex\expressions\common\mul_impl.hpp
; Line 22
	mov	r8, QWORD PTR [r9+16]
	mov	rax, QWORD PTR [r8]
; File C:\Users\artem.zyktin\projects\tenvex\src\tenvex\expressions\core\core_sse.h
; Line 114
	movups	xmm1, XMMWORD PTR [rax+16]
	mulps	xmm1, XMMWORD PTR [rax]
; File C:\Users\artem.zyktin\projects\tenvex\src\tenvex\expressions\vec\vec4_impl.hpp
; Line 60
	mov	rax, rcx
; File C:\Users\artem.zyktin\projects\tenvex\src\tenvex\expressions\core\core_sse.h
; Line 116
	movaps	xmm2, xmm1
	movaps	xmm0, xmm1
	shufps	xmm0, xmm1, 85				; 00000055H
	addss	xmm2, xmm0
; Line 117
	movhlps	xmm1, xmm1
; Line 95
	movups	xmm0, XMMWORD PTR [rdx]
; Line 118
	addss	xmm2, xmm1
; Line 119
	shufps	xmm2, xmm2, 0
; Line 101
	mulps	xmm2, XMMWORD PTR [r8+16]
	mulps	xmm2, XMMWORD PTR [r9]
; Line 95
	subps	xmm0, xmm2
; File C:\Users\artem.zyktin\projects\tenvex\src\tenvex\expressions\common\sub_impl.hpp
; Line 22
	movups	XMMWORD PTR [rcx], xmm0
; File C:\Users\artem.zyktin\projects\tenvex\src\tenvex\expressions\vec\vec4_impl.hpp
; Line 60
	ret	0
??$?0U?$Sub@Uvec4@tnvx@@U?$Mul@Uvec4@tnvx@@U?$Mul@U?$Dot3@Uvec4@tnvx@@U12@@tnvx@@UScalar@2@@2@@2@@tnvx@@@vec4@tnvx@@QEAA@AEBU?$Sub@Uvec4@tnvx@@U?$Mul@Uvec4@tnvx@@U?$Mul@U?$Dot3@Uvec4@tnvx@@U12@@tnvx@@UScalar@2@@2@@2@@1@@Z ENDP ; tnvx::vec4::vec4<tnvx::Sub<tnvx::vec4,tnvx::Mul<tnvx::vec4,tnvx::Mul<tnvx::Dot3<tnvx::vec4,tnvx::vec4>,tnvx::Scalar> > > >
_TEXT	ENDS
; Function compile flags: /Ogtpy
;	COMDAT ??$magnitude3_sq@U?$Sub@Uvec4@tnvx@@U12@@tnvx@@@tnvx@@YA?AU?$Magn3Sq@U?$Sub@Uvec4@tnvx@@U12@@tnvx@@@0@AEBU?$Sub@Uvec4@tnvx@@U12@@0@@Z
_TEXT	SEGMENT
__$ReturnUdt$ = 8
e$ = 16
??$magnitude3_sq@U?$Sub@Uvec4@tnvx@@U12@@tnvx@@@tnvx@@YA?AU?$Magn3Sq@U?$Sub@Uvec4@tnvx@@U12@@tnvx@@@0@AEBU?$Sub@Uvec4@tnvx@@U12@@0@@Z PROC ; tnvx::magnitude3_sq<tnvx::Sub<tnvx::vec4,tnvx::vec4> >, COMDAT
; File C:\Users\artem.zyktin\projects\tenvex\src\tenvex\expressions\vec\magnitude3_sq_impl.hpp
; Line 11
	mov	QWORD PTR [rcx], rdx
; Line 33
	mov	rax, rcx
; Line 34
	ret	0
??$magnitude3_sq@U?$Sub@Uvec4@tnvx@@U12@@tnvx@@@tnvx@@YA?AU?$Magn3Sq@U?$Sub@Uvec4@tnvx@@U12@@tnvx@@@0@AEBU?$Sub@Uvec4@tnvx@@U12@@0@@Z ENDP ; tnvx::magnitude3_sq<tnvx::Sub<tnvx::vec4,tnvx::vec4> >
_TEXT	ENDS
; Function compile flags: /Ogtpy
;	COMDAT ??0?$Magn3Sq@U?$Sub@Uvec4@tnvx@@U12@@tnvx@@@tnvx@@QEAA@AEIBU?$Sub@Uvec4@tnvx@@U12@@1@@Z
_TEXT	SEGMENT
this$ = 8
e$ = 16
??0?$Magn3Sq@U?$Sub@Uvec4@tnvx@@U12@@tnvx@@@tnvx@@QEAA@AEIBU?$Sub@Uvec4@tnvx@@U12@@1@@Z PROC ; tnvx::Magn3Sq<tnvx::Sub<tnvx::vec4,tnvx::vec4> >::Magn3Sq<tnvx::Sub<tnvx::vec4,tnvx::vec4> >, COMDAT
; File C:\Users\artem.zyktin\projects\tenvex\src\tenvex\expressions\vec\magnitude3_sq_impl.hpp
; Line 11
	mov	QWORD PTR [rcx], rdx
; Line 13
	mov	rax, rcx
	ret	0
??0?$Magn3Sq@U?$Sub@Uvec4@tnvx@@U12@@tnvx@@@tnvx@@QEAA@AEIBU?$Sub@Uvec4@tnvx@@U12@@1@@Z ENDP ; tnvx::Magn3Sq<tnvx::Sub<tnvx::vec4,tnvx::vec4> >::Magn3Sq<tnvx::Sub<tnvx::vec4,tnvx::vec4> >
_TEXT	ENDS
; Function compile flags: /Ogtpy
;	COMDAT ?eval@?$Magn3Sq@U?$Sub@Uvec4@tnvx@@U12@@tnvx@@@tnvx@@QEBA?AT__m128@@XZ
_TEXT	SEGMENT
this$ = 8
__$ReturnUdt$ = 16
?eval@?$Magn3Sq@U?$Sub@Uvec4@tnvx@@U12@@tnvx@@@tnvx@@QEBA?AT__m128@@XZ PROC ; tnvx::Magn3Sq<tnvx::Sub<tnvx::vec4,tnvx::vec4> >::eval, COMDAT
; File C:\Users\artem.zyktin\projects\tenvex\src\tenvex\expressions\vec\magnitude3_sq_impl.hpp
; Line 19
	mov	rax, QWORD PTR [rcx]
; File C:\Users\artem.zyktin\projects\tenvex\src\tenvex\expressions\core\core_sse.h
; Line 95
	movups	xmm2, XMMWORD PTR [rax]
	subps	xmm2, XMMWORD PTR [rax+16]
; File C:\Users\artem.zyktin\projects\tenvex\src\tenvex\expressions\vec\magnitude3_sq_impl.hpp
; Line 19
	mov	rax, rdx
; File C:\Users\artem.zyktin\projects\tenvex\src\tenvex\expressions\core\core_sse.h
; Line 114
	mulps	xmm2, xmm2
; Line 116
	movaps	xmm1, xmm2
	movaps	xmm0, xmm2
	shufps	xmm0, xmm2, 85				; 00000055H
	addss	xmm1, xmm0
; Line 117
	movhlps	xmm2, xmm2
; Line 118
	addss	xmm1, xmm2
; Line 119
	shufps	xmm1, xmm1, 0
; File C:\Users\artem.zyktin\projects\tenvex\src\tenvex\expressions\vec\magnitude3_sq_impl.hpp
; Line 19
	movups	XMMWORD PTR [rdx], xmm1
; Line 20
	ret	0
?eval@?$Magn3Sq@U?$Sub@Uvec4@tnvx@@U12@@tnvx@@@tnvx@@QEBA?AT__m128@@XZ ENDP ; tnvx::Magn3Sq<tnvx::Sub<tnvx::vec4,tnvx::vec4> >::eval
_TEXT	ENDS
; Function compile flags: /Ogtpy
;	COMDAT ??B?$Magn3Sq@U?$Sub@Uvec4@tnvx@@U12@@tnvx@@@tnvx@@QEBAMXZ
_TEXT	SEGMENT
this$ = 8
??B?$Magn3Sq@U?$Sub@Uvec4@tnvx@@U12@@tnvx@@@tnvx@@QEBAMXZ PROC ; tnvx::Magn3Sq<tnvx::Sub<tnvx::vec4,tnvx::vec4> >::operator float, COMDAT
; File C:\Users\artem.zyktin\projects\tenvex\src\tenvex\expressions\vec\magnitude3_sq_impl.hpp
; Line 19
	mov	rax, QWORD PTR [rcx]
; File C:\Users\artem.zyktin\projects\tenvex\src\tenvex\expressions\core\core_sse.h
; Line 95
	movups	xmm2, XMMWORD PTR [rax]
	subps	xmm2, XMMWORD PTR [rax+16]
; Line 114
	mulps	xmm2, xmm2
; Line 115
	movaps	xmm1, xmm2
; Line 116
	movaps	xmm0, xmm2
	shufps	xmm1, xmm2, 85				; 00000055H
	addss	xmm0, xmm1
; Line 117
	movhlps	xmm2, xmm2
; Line 118
	addss	xmm0, xmm2
; File C:\Users\artem.zyktin\projects\tenvex\src\tenvex\expressions\vec\magnitude3_sq_impl.hpp
; Line 27
	ret	0
??B?$Magn3Sq@U?$Sub@Uvec4@tnvx@@U12@@tnvx@@@tnvx@@QEBAMXZ ENDP ; tnvx::Magn3Sq<tnvx::Sub<tnvx::vec4,tnvx::vec4> >::operator float
_TEXT	ENDS
; Function compile flags: /Ogtpy
;	COMDAT ??$dot4@Uquat@tnvx@@U12@@tnvx@@YA?AU?$Dot4@Uquat@tnvx@@U12@@0@AEBUquat@0@0@Z
_TEXT	SEGMENT
__$ReturnUdt$ = 8
l$ = 16
r$ = 24
??$dot4@Uquat@tnvx@@U12@@tnvx@@YA?AU?$Dot4@Uquat@tnvx@@U12@@0@AEBUquat@0@0@Z PROC ; tnvx::dot4<tnvx::quat,tnvx::quat>, COMDAT
; File C:\Users\artem.zyktin\projects\tenvex\src\tenvex\expressions\common\dot4_impl.hpp
; Line 12
	movaps	xmm0, XMMWORD PTR [rdx]
; Line 38
	mov	rax, rcx
; Line 13
	movaps	xmm1, XMMWORD PTR [r8]
	movups	XMMWORD PTR [rcx], xmm0
	movups	XMMWORD PTR [rcx+16], xmm1
; Line 39
	ret	0
??$dot4@Uquat@tnvx@@U12@@tnvx@@YA?AU?$Dot4@Uquat@tnvx@@U12@@0@AEBUquat@0@0@Z ENDP ; tnvx::dot4<tnvx::quat,tnvx::quat>
_TEXT	ENDS
; Function compile flags: /Ogtpy
;	COMDAT ??0?$Dot4@Uquat@tnvx@@U12@@tnvx@@QEAA@AEIBUquat@1@0@Z
_TEXT	SEGMENT
this$ = 8
l$ = 16
r$ = 24
??0?$Dot4@Uquat@tnvx@@U12@@tnvx@@QEAA@AEIBUquat@1@0@Z PROC ; tnvx::Dot4<tnvx::quat,tnvx::quat>::Dot4<tnvx::quat,tnvx::quat>, COMDAT
; File C:\Users\artem.zyktin\projects\tenvex\src\tenvex\expressions\common\dot4_impl.hpp
; Line 12
	movaps	xmm0, XMMWORD PTR [rdx]
; Line 15
	mov	rax, rcx
	movaps	xmm1, XMMWORD PTR [r8]
	movups	XMMWORD PTR [rcx], xmm0
	movups	XMMWORD PTR [rcx+16], xmm1
	ret	0
??0?$Dot4@Uquat@tnvx@@U12@@tnvx@@QEAA@AEIBUquat@1@0@Z ENDP ; tnvx::Dot4<tnvx::quat,tnvx::quat>::Dot4<tnvx::quat,tnvx::quat>
_TEXT	ENDS
; Function compile flags: /Ogtpy
;	COMDAT ?eval@?$Dot4@Uquat@tnvx@@U12@@tnvx@@QEBA?AT__m128@@XZ
_TEXT	SEGMENT
this$ = 8
__$ReturnUdt$ = 16
?eval@?$Dot4@Uquat@tnvx@@U12@@tnvx@@QEBA?AT__m128@@XZ PROC ; tnvx::Dot4<tnvx::quat,tnvx::quat>::eval, COMDAT
; File C:\Users\artem.zyktin\projects\tenvex\src\tenvex\expressions\common\dot4_impl.hpp
; File C:\Users\artem.zyktin\projects\tenvex\src\tenvex\expressions\core\core_sse.h
; Line 125
	movups	xmm0, XMMWORD PTR [rcx+16]
; File C:\Users\artem.zyktin\projects\tenvex\src\tenvex\expressions\common\dot4_impl.hpp
; Line 22
	mov	rax, rdx
; File C:\Users\artem.zyktin\projects\tenvex\src\tenvex\expressions\core\core_sse.h
; Line 125
	mulps	xmm0, XMMWORD PTR [rcx]
; Line 126
	haddps	xmm0, xmm0
; Line 127
	haddps	xmm0, xmm0
; File C:\Users\artem.zyktin\projects\tenvex\src\tenvex\expressions\common\dot4_impl.hpp
; Line 22
	movups	XMMWORD PTR [rdx], xmm0
; Line 23
	ret	0
?eval@?$Dot4@Uquat@tnvx@@U12@@tnvx@@QEBA?AT__m128@@XZ ENDP ; tnvx::Dot4<tnvx::quat,tnvx::quat>::eval
_TEXT	ENDS
; Function compile flags: /Ogtpy
;	COMDAT ??B?$Dot4@Uquat@tnvx@@U12@@tnvx@@QEBAMXZ
_TEXT	SEGMENT
this$ = 8
??B?$Dot4@Uquat@tnvx@@U12@@tnvx@@QEBAMXZ PROC		; tnvx::Dot4<tnvx::quat,tnvx::quat>::operator float, COMDAT
; File C:\Users\artem.zyktin\projects\tenvex\src\tenvex\expressions\common\dot4_impl.hpp
; File C:\Users\artem.zyktin\projects\tenvex\src\tenvex\expressions\core\core_sse.h
; Line 125
	movups	xmm0, XMMWORD PTR [rcx+16]
	mulps	xmm0, XMMWORD PTR [rcx]
; Line 126
	haddps	xmm0, xmm0
; Line 127
	haddps	xmm0, xmm0
; File C:\Users\artem.zyktin\projects\tenvex\src\tenvex\expressions\common\dot4_impl.hpp
; Line 31
	ret	0
??B?$Dot4@Uquat@tnvx@@U12@@tnvx@@QEBAMXZ ENDP		; tnvx::Dot4<tnvx::quat,tnvx::quat>::operator float
_TEXT	ENDS
; Function compile flags: /Ogtpy
;	COMDAT ??$?DUquat@tnvx@@@tnvx@@YA?AU?$Mul@Uquat@tnvx@@UScalar@2@@0@AEBUquat@0@M@Z
_TEXT	SEGMENT
__$ReturnUdt$ = 8
l$ = 16
r$ = 24
??$?DUquat@tnvx@@@tnvx@@YA?AU?$Mul@Uquat@tnvx@@UScalar@2@@0@AEBUquat@0@M@Z PROC ; tnvx::operator*<tnvx::quat>, COMDAT
; File C:\Users\artem.zyktin\projects\tenvex\src\tenvex\expressions\common\mul_impl.hpp
; Line 12
	movups	xmm0, XMMWORD PTR [rdx]
; Line 85
	mov	rax, rcx
; File C:\Users\artem.zyktin\projects\tenvex\src\tenvex\expressions\core\core_sse.h
; Line 58
	shufps	xmm2, xmm2, 0
; File C:\Users\artem.zyktin\projects\tenvex\src\tenvex\expressions\common\mul_impl.hpp
; Line 12
	movups	XMMWORD PTR [rcx], xmm0
; Line 13
	movups	XMMWORD PTR [rcx+16], xmm2
; Line 86
	ret	0
??$?DUquat@tnvx@@@tnvx@@YA?AU?$Mul@Uquat@tnvx@@UScalar@2@@0@AEBUquat@0@M@Z ENDP ; tnvx::operator*<tnvx::quat>
_TEXT	ENDS
; Function compile flags: /Ogtpy
;	COMDAT ??0?$Mul@Uquat@tnvx@@UScalar@2@@tnvx@@QEAA@AEIBUquat@1@AEIBUScalar@1@@Z
_TEXT	SEGMENT
this$ = 8
l$ = 16
r$ = 24
??0?$Mul@Uquat@tnvx@@UScalar@2@@tnvx@@QEAA@AEIBUquat@1@AEIBUScalar@1@@Z PROC ; tnvx::Mul<tnvx::quat,tnvx::Scalar>::Mul<tnvx::quat,tnvx::Scalar>, COMDAT
; File C:\Users\artem.zyktin\projects\tenvex\src\tenvex\expressions\common\mul_impl.hpp
; Line 12
	movaps	xmm0, XMMWORD PTR [rdx]
; Line 15
	mov	rax, rcx
	movaps	xmm1, XMMWORD PTR [r8]
	movups	XMMWORD PTR [rcx], xmm0
	movups	XMMWORD PTR [rcx+16], xmm1
	ret	0
??0?$Mul@Uquat@tnvx@@UScalar@2@@tnvx@@QEAA@AEIBUquat@1@AEIBUScalar@1@@Z ENDP ; tnvx::Mul<tnvx::quat,tnvx::Scalar>::Mul<tnvx::quat,tnvx::Scalar>
_TEXT	ENDS
; Function compile flags: /Ogtpy
;	COMDAT ?eval@?$Mul@Uquat@tnvx@@UScalar@2@@tnvx@@QEBA?AT__m128@@XZ
_TEXT	SEGMENT
this$ = 8
__$ReturnUdt$ = 16
?eval@?$Mul@Uquat@tnvx@@UScalar@2@@tnvx@@QEBA?AT__m128@@XZ PROC ; tnvx::Mul<tnvx::quat,tnvx::Scalar>::eval, COMDAT
; File C:\Users\artem.zyktin\projects\tenvex\src\tenvex\expressions\common\mul_impl.hpp
; File C:\Users\artem.zyktin\projects\tenvex\src\tenvex\expressions\core\core_sse.h
; Line 101
	movups	xmm0, XMMWORD PTR [rcx+16]
; File C:\Users\artem.zyktin\projects\tenvex\src\tenvex\expressions\common\mul_impl.hpp
; Line 22
	mov	rax, rdx
; File C:\Users\artem.zyktin\projects\tenvex\src\tenvex\expressions\core\core_sse.h
; Line 101
	mulps	xmm0, XMMWORD PTR [rcx]
; File C:\Users\artem.zyktin\projects\tenvex\src\tenvex\expressions\common\mul_impl.hpp
; Line 22
	movups	XMMWORD PTR [rdx], xmm0
; Line 23
	ret	0
?eval@?$Mul@Uquat@tnvx@@UScalar@2@@tnvx@@QEBA?AT__m128@@XZ ENDP ; tnvx::Mul<tnvx::quat,tnvx::Scalar>::eval
_TEXT	ENDS
; Function compile flags: /Ogtpy
;	COMDAT ??$?HU?$Mul@Uquat@tnvx@@UScalar@2@@tnvx@@U01@@tnvx@@YA?AU?$Add@U?$Mul@Uquat@tnvx@@UScalar@2@@tnvx@@U12@@0@AEBU?$Mul@Uquat@tnvx@@UScalar@2@@0@0@Z
_TEXT	SEGMENT
__$ReturnUdt$ = 8
l$ = 16
r$ = 24
??$?HU?$Mul@Uquat@tnvx@@UScalar@2@@tnvx@@U01@@tnvx@@YA?AU?$Add@U?$Mul@Uquat@tnvx@@UScalar@2@@tnvx@@U12@@0@AEBU?$Mul@Uquat@tnvx@@UScalar@2@@0@0@Z PROC ; tnvx::operator+<tnvx::Mul<tnvx::quat,tnvx::Scalar>,tnvx::Mul<tnvx::quat,tnvx::Scalar> >, COMDAT
; File C:\Users\artem.zyktin\projects\tenvex\src\tenvex\expressions\common\add_impl.hpp
; Line 12
	mov	QWORD PTR [rcx], rdx
; Line 66
	mov	rax, rcx
; Line 13
	mov	QWORD PTR [rcx+8], r8
; Line 67
	ret	0
??$?HU?$Mul@Uquat@tnvx@@UScalar@2@@tnvx@@U01@@tnvx@@YA?AU?$Add@U?$Mul@Uquat@tnvx@@UScalar@2@@tnvx@@U12@@0@AEBU?$Mul@Uquat@tnvx@@UScalar@2@@0@0@Z ENDP ; tnvx::operator+<tnvx::Mul<tnvx::quat,tnvx::Scalar>,tnvx::Mul<tnvx::quat,tnvx::Scalar> >
_TEXT	ENDS
; Function compile flags: /Ogtpy
;	COMDAT ??0?$Add@U?$Mul@Uquat@tnvx@@UScalar@2@@tnvx@@U12@@tnvx@@QEAA@AEIBU?$Mul@Uquat@tnvx@@UScalar@2@@1@0@Z
_TEXT	SEGMENT
this$ = 8
l$ = 16
r$ = 24
??0?$Add@U?$Mul@Uquat@tnvx@@UScalar@2@@tnvx@@U12@@tnvx@@QEAA@AEIBU?$Mul@Uquat@tnvx@@UScalar@2@@1@0@Z PROC ; tnvx::Add<tnvx::Mul<tnvx::quat,tnvx::Scalar>,tnvx::Mul<tnvx::quat,tnvx::Scalar> >::Add<tnvx::Mul<tnvx::quat,tnvx::Scalar>,tnvx::Mul<tnvx::quat,tnvx::Scalar> >, COMDAT
; File C:\Users\artem.zyktin\projects\tenvex\src\tenvex\expressions\common\add_impl.hpp
; Line 12
	mov	QWORD PTR [rcx], rdx
; Line 15
	mov	rax, rcx
	mov	QWORD PTR [rcx+8], r8
	ret	0
??0?$Add@U?$Mul@Uquat@tnvx@@UScalar@2@@tnvx@@U12@@tnvx@@QEAA@AEIBU?$Mul@Uquat@tnvx@@UScalar@2@@1@0@Z ENDP ; tnvx::Add<tnvx::Mul<tnvx::quat,tnvx::Scalar>,tnvx::Mul<tnvx::quat,tnvx::Scalar> >::Add<tnvx::Mul<tnvx::quat,tnvx::Scalar>,tnvx::Mul<tnvx::quat,tnvx::Scalar> >
_TEXT	ENDS
; Function compile flags: /Ogtpy
;	COMDAT ?eval@?$Add@U?$Mul@Uquat@tnvx@@UScalar@2@@tnvx@@U12@@tnvx@@QEBA?AT__m128@@XZ
_TEXT	SEGMENT
this$ = 8
__$ReturnUdt$ = 16
?eval@?$Add@U?$Mul@Uquat@tnvx@@UScalar@2@@tnvx@@U12@@tnvx@@QEBA?AT__m128@@XZ PROC ; tnvx::Add<tnvx::Mul<tnvx::quat,tnvx::Scalar>,tnvx::Mul<tnvx::quat,tnvx::Scalar> >::eval, COMDAT
; File C:\Users\artem.zyktin\projects\tenvex\src\tenvex\expressions\common\add_impl.hpp
; Line 22
	mov	rax, QWORD PTR [rcx+8]
	mov	r8, QWORD PTR [rcx]
; File C:\Users\artem.zyktin\projects\tenvex\src\tenvex\expressions\core\core_sse.h
; Line 101
	movups	xmm1, XMMWORD PTR [rax+16]
	mulps	xmm1, XMMWORD PTR [rax]
; File C:\Users\artem.zyktin\projects\tenvex\src\tenvex\expressions\common\add_impl.hpp
; Line 22
	mov	rax, rdx
; File C:\Users\artem.zyktin\projects\tenvex\src\tenvex\expressions\core\core_sse.h
; Line 101
	movups	xmm0, XMMWORD PTR [r8+16]
	mulps	xmm0, XMMWORD PTR [r8]
; Line 89
	addps	xmm0, xmm1
; File C:\Users\artem.zyktin\projects\tenvex\src\tenvex\expressions\common\add_impl.hpp
; Line 22
	movups	XMMWORD PTR [rdx], xmm0
; Line 23
	ret	0
?eval@?$Add@U?$Mul@Uquat@tnvx@@UScalar@2@@tnvx@@U12@@tnvx@@QEBA?AT__m128@@XZ ENDP ; tnvx::Add<tnvx::Mul<tnvx::quat,tnvx::Scalar>,tnvx::Mul<tnvx::quat,tnvx::Scalar> >::eval
_TEXT	ENDS
; Function compile flags: /Ogtpy
;	COMDAT ??$normalize4@U?$Add@U?$Mul@Uquat@tnvx@@UScalar@2@@tnvx@@U12@@tnvx@@@tnvx@@YA?AU?$Normalize4@U?$Add@U?$Mul@Uquat@tnvx@@UScalar@2@@tnvx@@U12@@tnvx@@@0@AEBU?$Add@U?$Mul@Uquat@tnvx@@UScalar@2@@tnvx@@U12@@0@@Z
_TEXT	SEGMENT
__$ReturnUdt$ = 8
e$ = 16
??$normalize4@U?$Add@U?$Mul@Uquat@tnvx@@UScalar@2@@tnvx@@U12@@tnvx@@@tnvx@@YA?AU?$Normalize4@U?$Add@U?$Mul@Uquat@tnvx@@UScalar@2@@tnvx@@U12@@tnvx@@@0@AEBU?$Add@U?$Mul@Uquat@tnvx@@UScalar@2@@tnvx@@U12@@0@@Z PROC ; tnvx::normalize4<tnvx::Add<tnvx::Mul<tnvx::quat,tnvx::Scalar>,tnvx::Mul<tnvx::quat,tnvx::Scalar> > >, COMDAT
; File C:\Users\artem.zyktin\projects\tenvex\src\tenvex\expressions\common\normalize4_impl.hpp
; Line 11
	movups	xmm0, XMMWORD PTR [rdx]
; Line 26
	mov	rax, rcx
; Line 11
	movups	XMMWORD PTR [rcx], xmm0
; Line 27
	ret	0
??$normalize4@U?$Add@U?$Mul@Uquat@tnvx@@UScalar@2@@tnvx@@U12@@tnvx@@@tnvx@@YA?AU?$Normalize4@U?$Add@U?$Mul@Uquat@tnvx@@UScalar@2@@tnvx@@U12@@tnvx@@@0@AEBU?$Add@U?$Mul@Uquat@tnvx@@UScalar@2@@tnvx@@U12@@0@@Z ENDP ; tnvx::normalize4<tnvx::Add<tnvx::Mul<tnvx::quat,tnvx::Scalar>,tnvx::Mul<tnvx::quat,tnvx::Scalar> > >
_TEXT	ENDS
; Function compile flags: /Ogtpy
;	COMDAT ??0?$Normalize4@U?$Add@U?$Mul@Uquat@tnvx@@UScalar@2@@tnvx@@U12@@tnvx@@@tnvx@@QEAA@AEIBU?$Add@U?$Mul@Uquat@tnvx@@UScalar@2@@tnvx@@U12@@1@@Z
_TEXT	SEGMENT
this$ = 8
e$ = 16
??0?$Normalize4@U?$Add@U?$Mul@Uquat@tnvx@@UScalar@2@@tnvx@@U12@@tnvx@@@tnvx@@QEAA@AEIBU?$Add@U?$Mul@Uquat@tnvx@@UScalar@2@@tnvx@@U12@@1@@Z PROC ; tnvx::Normalize4<tnvx::Add<tnvx::Mul<tnvx::quat,tnvx::Scalar>,tnvx::Mul<tnvx::quat,tnvx::Scalar> > >::Normalize4<tnvx::Add<tnvx::Mul<tnvx::quat,tnvx::Scalar>,tnvx::Mul<tnvx::quat,tnvx::Scalar> > >, COMDAT
; File C:\Users\artem.zyktin\projects\tenvex\src\tenvex\expressions\common\normalize4_impl.hpp
; Line 11
	movups	xmm0, XMMWORD PTR [rdx]
; Line 13
	mov	rax, rcx
	movups	XMMWORD PTR [rcx], xmm0
	ret	0
??0?$Normalize4@U?$Add@U?$Mul@Uquat@tnvx@@UScalar@2@@tnvx@@U12@@tnvx@@@tnvx@@QEAA@AEIBU?$Add@U?$Mul@Uquat@tnvx@@UScalar@2@@tnvx@@U12@@1@@Z ENDP ; tnvx::Normalize4<tnvx::Add<tnvx::Mul<tnvx::quat,tnvx::Scalar>,tnvx::Mul<tnvx::quat,tnvx::Scalar> > >::Normalize4<tnvx::Add<tnvx::Mul<tnvx::quat,tnvx::Scalar>,tnvx::Mul<tnvx::quat,tnvx::Scalar> > >
_TEXT	ENDS
; Function compile flags: /Ogtpy
;	COMDAT ?eval@?$Normalize4@U?$Add@U?$Mul@Uquat@tnvx@@UScalar@2@@tnvx@@U12@@tnvx@@@tnvx@@QEBA?AT__m128@@XZ
_TEXT	SEGMENT
this$ = 8
__$ReturnUdt$ = 16
?eval@?$Normalize4@U?$Add@U?$Mul@Uquat@tnvx@@UScalar@2@@tnvx@@U12@@tnvx@@@tnvx@@QEBA?AT__m128@@XZ PROC ; tnvx::Normalize4<tnvx::Add<tnvx::Mul<tnvx::quat,tnvx::Scalar>,tnvx::Mul<tnvx::quat,tnvx::Scalar> > >::eval, COMDAT
; File C:\Users\artem.zyktin\projects\tenvex\src\tenvex\expressions\common\normalize4_impl.hpp
; File C:\Users\artem.zyktin\projects\tenvex\src\tenvex\expressions\common\add_impl.hpp
; Line 22
	mov	rax, QWORD PTR [rcx+8]
	mov	r8, QWORD PTR [rcx]
; File C:\Users\artem.zyktin\projects\tenvex\src\tenvex\expressions\core\core_sse.h
; Line 101
	movups	xmm0, XMMWORD PTR [rax+16]
	mulps	xmm0, XMMWORD PTR [rax]
; File C:\Users\artem.zyktin\projects\tenvex\src\tenvex\expressions\common\normalize4_impl.hpp
; Line 19
	mov	rax, rdx
; File C:\Users\artem.zyktin\projects\tenvex\src\tenvex\expressions\core\core_sse.h
; Line 101
	movups	xmm1, XMMWORD PTR [r8+16]
	mulps	xmm1, XMMWORD PTR [r8]
; Line 89
	addps	xmm1, xmm0
; Line 125
	movaps	xmm0, xmm1
	mulps	xmm0, xmm1
; Line 126
	haddps	xmm0, xmm0
; Line 127
	haddps	xmm0, xmm0
; Line 145
	sqrtps	xmm0, xmm0
; Line 279
	divps	xmm1, xmm0
; File C:\Users\artem.zyktin\projects\tenvex\src\tenvex\expressions\common\normalize4_impl.hpp
; Line 19
	movups	XMMWORD PTR [rdx], xmm1
; Line 20
	ret	0
?eval@?$Normalize4@U?$Add@U?$Mul@Uquat@tnvx@@UScalar@2@@tnvx@@U12@@tnvx@@@tnvx@@QEBA?AT__m128@@XZ ENDP ; tnvx::Normalize4<tnvx::Add<tnvx::Mul<tnvx::quat,tnvx::Scalar>,tnvx::Mul<tnvx::quat,tnvx::Scalar> > >::eval
_TEXT	ENDS
; Function compile flags: /Ogtpy
;	COMDAT ??$?0U?$Normalize4@U?$Add@U?$Mul@Uquat@tnvx@@UScalar@2@@tnvx@@U12@@tnvx@@@tnvx@@@quat@tnvx@@QEAA@AEBU?$Normalize4@U?$Add@U?$Mul@Uquat@tnvx@@UScalar@2@@tnvx@@U12@@tnvx@@@1@@Z
_TEXT	SEGMENT
this$ = 8
e$ = 16
??$?0U?$Normalize4@U?$Add@U?$Mul@Uquat@tnvx@@UScalar@2@@tnvx@@U12@@tnvx@@@tnvx@@@quat@tnvx@@QEAA@AEBU?$Normalize4@U?$Add@U?$Mul@Uquat@tnvx@@UScalar@2@@tnvx@@U12@@tnvx@@@1@@Z PROC ; tnvx::quat::quat<tnvx::Normalize4<tnvx::Add<tnvx::Mul<tnvx::quat,tnvx::Scalar>,tnvx::Mul<tnvx::quat,tnvx::Scalar> > > >, COMDAT
; File C:\Users\artem.zyktin\projects\tenvex\src\tenvex\expressions\quat\quat_impl.hpp
; File C:\Users\artem.zyktin\projects\tenvex\src\tenvex\expressions\common\add_impl.hpp
; Line 22
	mov	rax, QWORD PTR [rdx+8]
	mov	r8, QWORD PTR [rdx]
; File C:\Users\artem.zyktin\projects\tenvex\src\tenvex\expressions\core\core_sse.h
; Line 101
	movups	xmm0, XMMWORD PTR [rax+16]
	mulps	xmm0, XMMWORD PTR [rax]
; File C:\Users\artem.zyktin\projects\tenvex\src\tenvex\expressions\quat\quat_impl.hpp
; Line 21
	mov	rax, rcx
; File C:\Users\artem.zyktin\projects\tenvex\src\tenvex\expressions\core\core_sse.h
; Line 101
	movups	xmm1, XMMWORD PTR [r8+16]
	mulps	xmm1, XMMWORD PTR [r8]
; Line 89
	addps	xmm1, xmm0
; Line 125
	movaps	xmm0, xmm1
	mulps	xmm0, xmm1
; Line 126
	haddps	xmm0, xmm0
; Line 127
	haddps	xmm0, xmm0
; Line 145
	sqrtps	xmm0, xmm0
; Line 279
	divps	xmm1, xmm0
; File C:\Users\artem.zyktin\projects\tenvex\src\tenvex\expressions\common\normalize4_impl.hpp
; Line 19
	movups	XMMWORD PTR [rcx], xmm1
; File C:\Users\artem.zyktin\projects\tenvex\src\tenvex\expressions\quat\quat_impl.hpp
; Line 21
	ret	0
??$?0U?$Normalize4@U?$Add@U?$Mul@Uquat@tnvx@@UScalar@2@@tnvx@@U12@@tnvx@@@tnvx@@@quat@tnvx@@QEAA@AEBU?$Normalize4@U?$Add@U?$Mul@Uquat@tnvx@@UScalar@2@@tnvx@@U12@@tnvx@@@1@@Z ENDP ; tnvx::quat::quat<tnvx::Normalize4<tnvx::Add<tnvx::Mul<tnvx::quat,tnvx::Scalar>,tnvx::Mul<tnvx::quat,tnvx::Scalar> > > >
_TEXT	ENDS
END
