; Microsoft (R) C/C++ Optimizing Compiler Version 19.51.36248 for x64
; cl /nologo /c /O2 /std:c++20 /EHsc /W3 /Isrc\tenvex /FA cg_compound.cpp
; Listing generated by Microsoft (R) Optimizing Compiler Version 19.51.36248.0 

include listing.inc

INCLUDELIB LIBCMT
INCLUDELIB OLDNAMES

PUBLIC	?set_all@detail@tnvx@@YA?AT__m128@@M@Z		; tnvx::detail::set_all
PUBLIC	?scalar@detail@tnvx@@YA?AT__m128@@M@Z		; tnvx::detail::scalar
PUBLIC	?add@detail@tnvx@@YA?AT__m128@@T3@0@Z		; tnvx::detail::add
PUBLIC	?mul@detail@tnvx@@YA?AT__m128@@T3@0@Z		; tnvx::detail::mul
PUBLIC	?dot3@detail@tnvx@@YA?AT__m128@@T3@0@Z		; tnvx::detail::dot3
PUBLIC	?magnitude3@detail@tnvx@@YA?AT__m128@@T3@@Z	; tnvx::detail::magnitude3
PUBLIC	?normalize3@detail@tnvx@@YA?AT__m128@@T3@@Z	; tnvx::detail::normalize3
PUBLIC	??0Scalar@tnvx@@QEAA@M@Z			; tnvx::Scalar::Scalar
PUBLIC	?eval@Scalar@tnvx@@QEBA?AT__m128@@XZ		; tnvx::Scalar::eval
PUBLIC	?eval@vec4@tnvx@@QEBA?AT__m128@@XZ		; tnvx::vec4::eval
PUBLIC	??$dot3@Uvec4@tnvx@@U12@@tnvx@@YA?AU?$Dot3@Uvec4@tnvx@@U12@@0@AEBUvec4@0@0@Z ; tnvx::dot3<tnvx::vec4,tnvx::vec4>
PUBLIC	??0?$Dot3@Uvec4@tnvx@@U12@@tnvx@@QEAA@AEIBUvec4@1@0@Z ; tnvx::Dot3<tnvx::vec4,tnvx::vec4>::Dot3<tnvx::vec4,tnvx::vec4>
PUBLIC	?eval@?$Dot3@Uvec4@tnvx@@U12@@tnvx@@QEBA?AT__m128@@XZ ; tnvx::Dot3<tnvx::vec4,tnvx::vec4>::eval
PUBLIC	cg_compound_et
PUBLIC	??$?DUvec4@tnvx@@@tnvx@@YA?AU?$Mul@Uvec4@tnvx@@UScalar@2@@0@AEBUvec4@0@M@Z ; tnvx::operator*<tnvx::vec4>
PUBLIC	??0?$Mul@Uvec4@tnvx@@UScalar@2@@tnvx@@QEAA@AEIBUvec4@1@AEIBUScalar@1@@Z ; tnvx::Mul<tnvx::vec4,tnvx::Scalar>::Mul<tnvx::vec4,tnvx::Scalar>
PUBLIC	?eval@?$Mul@Uvec4@tnvx@@UScalar@2@@tnvx@@QEBA?AT__m128@@XZ ; tnvx::Mul<tnvx::vec4,tnvx::Scalar>::eval
PUBLIC	??$?HUvec4@tnvx@@U?$Mul@Uvec4@tnvx@@UScalar@2@@1@@tnvx@@YA?AU?$Add@Uvec4@tnvx@@U?$Mul@Uvec4@tnvx@@UScalar@2@@2@@0@AEBUvec4@0@AEBU?$Mul@Uvec4@tnvx@@UScalar@2@@0@@Z ; tnvx::operator+<tnvx::vec4,tnvx::Mul<tnvx::vec4,tnvx::Scalar> >
PUBLIC	??0?$Add@Uvec4@tnvx@@U?$Mul@Uvec4@tnvx@@UScalar@2@@2@@tnvx@@QEAA@AEIBUvec4@1@AEIBU?$Mul@Uvec4@tnvx@@UScalar@2@@1@@Z ; tnvx::Add<tnvx::vec4,tnvx::Mul<tnvx::vec4,tnvx::Scalar> >::Add<tnvx::vec4,tnvx::Mul<tnvx::vec4,tnvx::Scalar> >
PUBLIC	?eval@?$Add@Uvec4@tnvx@@U?$Mul@Uvec4@tnvx@@UScalar@2@@2@@tnvx@@QEBA?AT__m128@@XZ ; tnvx::Add<tnvx::vec4,tnvx::Mul<tnvx::vec4,tnvx::Scalar> >::eval
PUBLIC	??$normalize3@U?$Add@Uvec4@tnvx@@U?$Mul@Uvec4@tnvx@@UScalar@2@@2@@tnvx@@@tnvx@@YA?AU?$Normalize3@U?$Add@Uvec4@tnvx@@U?$Mul@Uvec4@tnvx@@UScalar@2@@2@@tnvx@@@0@AEBU?$Add@Uvec4@tnvx@@U?$Mul@Uvec4@tnvx@@UScalar@2@@2@@0@@Z ; tnvx::normalize3<tnvx::Add<tnvx::vec4,tnvx::Mul<tnvx::vec4,tnvx::Scalar> > >
PUBLIC	??0?$Normalize3@U?$Add@Uvec4@tnvx@@U?$Mul@Uvec4@tnvx@@UScalar@2@@2@@tnvx@@@tnvx@@QEAA@AEIBU?$Add@Uvec4@tnvx@@U?$Mul@Uvec4@tnvx@@UScalar@2@@2@@1@@Z ; tnvx::Normalize3<tnvx::Add<tnvx::vec4,tnvx::Mul<tnvx::vec4,tnvx::Scalar> > >::Normalize3<tnvx::Add<tnvx::vec4,tnvx::Mul<tnvx::vec4,tnvx::Scalar> > >
PUBLIC	?eval@?$Normalize3@U?$Add@Uvec4@tnvx@@U?$Mul@Uvec4@tnvx@@UScalar@2@@2@@tnvx@@@tnvx@@QEBA?AT__m128@@XZ ; tnvx::Normalize3<tnvx::Add<tnvx::vec4,tnvx::Mul<tnvx::vec4,tnvx::Scalar> > >::eval
PUBLIC	??$?DU?$Normalize3@U?$Add@Uvec4@tnvx@@U?$Mul@Uvec4@tnvx@@UScalar@2@@2@@tnvx@@@tnvx@@U?$Dot3@Uvec4@tnvx@@U12@@1@@tnvx@@YA?AU?$Mul@U?$Normalize3@U?$Add@Uvec4@tnvx@@U?$Mul@Uvec4@tnvx@@UScalar@2@@2@@tnvx@@@tnvx@@U?$Dot3@Uvec4@tnvx@@U12@@2@@0@AEBU?$Normalize3@U?$Add@Uvec4@tnvx@@U?$Mul@Uvec4@tnvx@@UScalar@2@@2@@tnvx@@@0@AEBU?$Dot3@Uvec4@tnvx@@U12@@0@@Z ; tnvx::operator*<tnvx::Normalize3<tnvx::Add<tnvx::vec4,tnvx::Mul<tnvx::vec4,tnvx::Scalar> > >,tnvx::Dot3<tnvx::vec4,tnvx::vec4> >
PUBLIC	??0?$Mul@U?$Normalize3@U?$Add@Uvec4@tnvx@@U?$Mul@Uvec4@tnvx@@UScalar@2@@2@@tnvx@@@tnvx@@U?$Dot3@Uvec4@tnvx@@U12@@2@@tnvx@@QEAA@AEIBU?$Normalize3@U?$Add@Uvec4@tnvx@@U?$Mul@Uvec4@tnvx@@UScalar@2@@2@@tnvx@@@1@AEIBU?$Dot3@Uvec4@tnvx@@U12@@1@@Z ; tnvx::Mul<tnvx::Normalize3<tnvx::Add<tnvx::vec4,tnvx::Mul<tnvx::vec4,tnvx::Scalar> > >,tnvx::Dot3<tnvx::vec4,tnvx::vec4> >::Mul<tnvx::Normalize3<tnvx::Add<tnvx::vec4,tnvx::Mul<tnvx::vec4,tnvx::Scalar> > >,tnvx::Dot3<tnvx::vec4,tnvx::vec4> >
PUBLIC	?eval@?$Mul@U?$Normalize3@U?$Add@Uvec4@tnvx@@U?$Mul@Uvec4@tnvx@@UScalar@2@@2@@tnvx@@@tnvx@@U?$Dot3@Uvec4@tnvx@@U12@@2@@tnvx@@QEBA?AT__m128@@XZ ; tnvx::Mul<tnvx::Normalize3<tnvx::Add<tnvx::vec4,tnvx::Mul<tnvx::vec4,tnvx::Scalar> > >,tnvx::Dot3<tnvx::vec4,tnvx::vec4> >::eval
PUBLIC	??$?HU?$Mul@U?$Normalize3@U?$Add@Uvec4@tnvx@@U?$Mul@Uvec4@tnvx@@UScalar@2@@2@@tnvx@@@tnvx@@U?$Dot3@Uvec4@tnvx@@U12@@2@@tnvx@@U?$Mul@Uvec4@tnvx@@UScalar@2@@1@@tnvx@@YA?AU?$Add@U?$Mul@U?$Normalize3@U?$Add@Uvec4@tnvx@@U?$Mul@Uvec4@tnvx@@UScalar@2@@2@@tnvx@@@tnvx@@U?$Dot3@Uvec4@tnvx@@U12@@2@@tnvx@@U?$Mul@Uvec4@tnvx@@UScalar@2@@2@@0@AEBU?$Mul@U?$Normalize3@U?$Add@Uvec4@tnvx@@U?$Mul@Uvec4@tnvx@@UScalar@2@@2@@tnvx@@@tnvx@@U?$Dot3@Uvec4@tnvx@@U12@@2@@0@AEBU?$Mul@Uvec4@tnvx@@UScalar@2@@0@@Z ; tnvx::operator+<tnvx::Mul<tnvx::Normalize3<tnvx::Add<tnvx::vec4,tnvx::Mul<tnvx::vec4,tnvx::Scalar> > >,tnvx::Dot3<tnvx::vec4,tnvx::vec4> >,tnvx::Mul<tnvx::vec4,tnvx::Scalar> >
PUBLIC	??0?$Add@U?$Mul@U?$Normalize3@U?$Add@Uvec4@tnvx@@U?$Mul@Uvec4@tnvx@@UScalar@2@@2@@tnvx@@@tnvx@@U?$Dot3@Uvec4@tnvx@@U12@@2@@tnvx@@U?$Mul@Uvec4@tnvx@@UScalar@2@@2@@tnvx@@QEAA@AEIBU?$Mul@U?$Normalize3@U?$Add@Uvec4@tnvx@@U?$Mul@Uvec4@tnvx@@UScalar@2@@2@@tnvx@@@tnvx@@U?$Dot3@Uvec4@tnvx@@U12@@2@@1@AEIBU?$Mul@Uvec4@tnvx@@UScalar@2@@1@@Z ; tnvx::Add<tnvx::Mul<tnvx::Normalize3<tnvx::Add<tnvx::vec4,tnvx::Mul<tnvx::vec4,tnvx::Scalar> > >,tnvx::Dot3<tnvx::vec4,tnvx::vec4> >,tnvx::Mul<tnvx::vec4,tnvx::Scalar> >::Add<tnvx::Mul<tnvx::Normalize3<tnvx::Add<tnvx::vec4,tnvx::Mul<tnvx::vec4,tnvx::Scalar> > >,tnvx::Dot3<tnvx::vec4,tnvx::vec4> >,tnvx::Mul<tnvx::vec4,tnvx::Scalar> >
PUBLIC	?eval@?$Add@U?$Mul@U?$Normalize3@U?$Add@Uvec4@tnvx@@U?$Mul@Uvec4@tnvx@@UScalar@2@@2@@tnvx@@@tnvx@@U?$Dot3@Uvec4@tnvx@@U12@@2@@tnvx@@U?$Mul@Uvec4@tnvx@@UScalar@2@@2@@tnvx@@QEBA?AT__m128@@XZ ; tnvx::Add<tnvx::Mul<tnvx::Normalize3<tnvx::Add<tnvx::vec4,tnvx::Mul<tnvx::vec4,tnvx::Scalar> > >,tnvx::Dot3<tnvx::vec4,tnvx::vec4> >,tnvx::Mul<tnvx::vec4,tnvx::Scalar> >::eval
PUBLIC	cg_compound_manual
PUBLIC	cg_compound_intrin
PUBLIC	__xmm@40000000400000004000000040000000
PUBLIC	__xmm@40400000404000004040000040400000
EXTRN	_fltused:DWORD
;	COMDAT pdata
pdata	SEGMENT
$pdata$cg_compound_et DD imagerel $LN137
	DD	imagerel $LN137+21
	DD	imagerel $unwind$cg_compound_et
pdata	ENDS
;	COMDAT pdata
pdata	SEGMENT
$pdata$1$cg_compound_et DD imagerel $LN137+21
	DD	imagerel $LN137+184
	DD	imagerel $chain$1$cg_compound_et
pdata	ENDS
;	COMDAT pdata
pdata	SEGMENT
$pdata$2$cg_compound_et DD imagerel $LN137+184
	DD	imagerel $LN137+189
	DD	imagerel $chain$2$cg_compound_et
pdata	ENDS
;	COMDAT pdata
pdata	SEGMENT
$pdata$cg_compound_manual DD imagerel $LN61
	DD	imagerel $LN61+56
	DD	imagerel $unwind$cg_compound_manual
pdata	ENDS
;	COMDAT pdata
pdata	SEGMENT
$pdata$2$cg_compound_manual DD imagerel $LN61+56
	DD	imagerel $LN61+590
	DD	imagerel $chain$2$cg_compound_manual
pdata	ENDS
;	COMDAT pdata
pdata	SEGMENT
$pdata$3$cg_compound_manual DD imagerel $LN61+590
	DD	imagerel $LN61+753
	DD	imagerel $chain$3$cg_compound_manual
pdata	ENDS
;	COMDAT pdata
pdata	SEGMENT
$pdata$cg_compound_intrin DD imagerel $LN36
	DD	imagerel $LN36+42
	DD	imagerel $unwind$cg_compound_intrin
pdata	ENDS
;	COMDAT pdata
pdata	SEGMENT
$pdata$1$cg_compound_intrin DD imagerel $LN36+42
	DD	imagerel $LN36+373
	DD	imagerel $chain$1$cg_compound_intrin
pdata	ENDS
;	COMDAT pdata
pdata	SEGMENT
$pdata$2$cg_compound_intrin DD imagerel $LN36+373
	DD	imagerel $LN36+467
	DD	imagerel $chain$2$cg_compound_intrin
pdata	ENDS
;	COMDAT __xmm@40400000404000004040000040400000
CONST	SEGMENT
__xmm@40400000404000004040000040400000 DB 00H, 00H, '@@', 00H, 00H, '@@', 00H
	DB	00H, '@@', 00H, 00H, '@@'
CONST	ENDS
;	COMDAT __xmm@40000000400000004000000040000000
CONST	SEGMENT
__xmm@40000000400000004000000040000000 DB 00H, 00H, 00H, '@', 00H, 00H, 00H
	DB	'@', 00H, 00H, 00H, '@', 00H, 00H, 00H, '@'
CONST	ENDS
;	COMDAT xdata
xdata	SEGMENT
$chain$2$cg_compound_intrin DD 021H
	DD	imagerel $LN36
	DD	imagerel $LN36+42
	DD	imagerel $unwind$cg_compound_intrin
xdata	ENDS
;	COMDAT xdata
xdata	SEGMENT
$chain$1$cg_compound_intrin DD 040c21H
	DD	02740cH
	DD	043405H
	DD	imagerel $LN36
	DD	imagerel $LN36+42
	DD	imagerel $unwind$cg_compound_intrin
xdata	ENDS
;	COMDAT xdata
xdata	SEGMENT
$unwind$cg_compound_intrin DD 031801H
	DD	06818H
	DD	02204H
xdata	ENDS
;	COMDAT xdata
xdata	SEGMENT
$chain$3$cg_compound_manual DD 021H
	DD	imagerel $LN61
	DD	imagerel $LN61+56
	DD	imagerel $unwind$cg_compound_manual
xdata	ENDS
;	COMDAT xdata
xdata	SEGMENT
$chain$2$cg_compound_manual DD 061521H
	DD	027815H
	DD	08740cH
	DD	0a3405H
	DD	imagerel $LN61
	DD	imagerel $LN61+56
	DD	imagerel $unwind$cg_compound_manual
xdata	ENDS
;	COMDAT xdata
xdata	SEGMENT
$unwind$cg_compound_manual DD 072501H
	DD	09825H
	DD	018817H
	DD	036811H
	DD	08204H
xdata	ENDS
;	COMDAT xdata
xdata	SEGMENT
$chain$2$cg_compound_et DD 021H
	DD	imagerel $LN137
	DD	imagerel $LN137+21
	DD	imagerel $unwind$cg_compound_et
xdata	ENDS
;	COMDAT xdata
xdata	SEGMENT
$chain$1$cg_compound_et DD 041121H
	DD	07811H
	DD	016805H
	DD	imagerel $LN137
	DD	imagerel $LN137+21
	DD	imagerel $unwind$cg_compound_et
xdata	ENDS
;	COMDAT xdata
xdata	SEGMENT
$unwind$cg_compound_et DD 010401H
	DD	04204H
xdata	ENDS
; Function compile flags: /Ogtpy
;	COMDAT ?set_all@detail@tnvx@@YA?AT__m128@@M@Z
_TEXT	SEGMENT
a$ = 8
?set_all@detail@tnvx@@YA?AT__m128@@M@Z PROC		; tnvx::detail::set_all, COMDAT
; File C:\Users\artem.zyktin\projects\tenvex\src\tenvex\expressions\core\core_sse.h
; Line 27
	shufps	xmm0, xmm0, 0
; Line 28
	ret	0
?set_all@detail@tnvx@@YA?AT__m128@@M@Z ENDP		; tnvx::detail::set_all
_TEXT	ENDS
; Function compile flags: /Ogtpy
;	COMDAT ?scalar@detail@tnvx@@YA?AT__m128@@M@Z
_TEXT	SEGMENT
value$ = 8
?scalar@detail@tnvx@@YA?AT__m128@@M@Z PROC		; tnvx::detail::scalar, COMDAT
; File C:\Users\artem.zyktin\projects\tenvex\src\tenvex\expressions\core\core_sse.h
; Line 58
	shufps	xmm0, xmm0, 0
; Line 59
	ret	0
?scalar@detail@tnvx@@YA?AT__m128@@M@Z ENDP		; tnvx::detail::scalar
_TEXT	ENDS
; Function compile flags: /Ogtpy
;	COMDAT ?add@detail@tnvx@@YA?AT__m128@@T3@0@Z
_TEXT	SEGMENT
l$ = 8
r$ = 16
?add@detail@tnvx@@YA?AT__m128@@T3@0@Z PROC		; tnvx::detail::add, COMDAT
; File C:\Users\artem.zyktin\projects\tenvex\src\tenvex\expressions\core\core_sse.h
; Line 89
	movups	xmm0, XMMWORD PTR [rcx]
	addps	xmm0, XMMWORD PTR [rdx]
; Line 90
	ret	0
?add@detail@tnvx@@YA?AT__m128@@T3@0@Z ENDP		; tnvx::detail::add
_TEXT	ENDS
; Function compile flags: /Ogtpy
;	COMDAT ?mul@detail@tnvx@@YA?AT__m128@@T3@0@Z
_TEXT	SEGMENT
l$ = 8
r$ = 16
?mul@detail@tnvx@@YA?AT__m128@@T3@0@Z PROC		; tnvx::detail::mul, COMDAT
; File C:\Users\artem.zyktin\projects\tenvex\src\tenvex\expressions\core\core_sse.h
; Line 101
	movups	xmm0, XMMWORD PTR [rcx]
	mulps	xmm0, XMMWORD PTR [rdx]
; Line 102
	ret	0
?mul@detail@tnvx@@YA?AT__m128@@T3@0@Z ENDP		; tnvx::detail::mul
_TEXT	ENDS
; Function compile flags: /Ogtpy
;	COMDAT ?dot3@detail@tnvx@@YA?AT__m128@@T3@0@Z
_TEXT	SEGMENT
l$ = 8
r$ = 16
?dot3@detail@tnvx@@YA?AT__m128@@T3@0@Z PROC		; tnvx::detail::dot3, COMDAT
; File C:\Users\artem.zyktin\projects\tenvex\src\tenvex\expressions\core\core_sse.h
; Line 114
	movups	xmm2, XMMWORD PTR [rcx]
	mulps	xmm2, XMMWORD PTR [rdx]
; Line 116
	movaps	xmm0, xmm2
	movaps	xmm1, xmm2
	shufps	xmm1, xmm2, 85				; 00000055H
	addss	xmm0, xmm1
; Line 117
	movhlps	xmm2, xmm2
; Line 118
	addss	xmm0, xmm2
; Line 119
	shufps	xmm0, xmm0, 0
; Line 120
	ret	0
?dot3@detail@tnvx@@YA?AT__m128@@T3@0@Z ENDP		; tnvx::detail::dot3
_TEXT	ENDS
; Function compile flags: /Ogtpy
;	COMDAT ?magnitude3@detail@tnvx@@YA?AT__m128@@T3@@Z
_TEXT	SEGMENT
v$ = 8
?magnitude3@detail@tnvx@@YA?AT__m128@@T3@@Z PROC	; tnvx::detail::magnitude3, COMDAT
; File C:\Users\artem.zyktin\projects\tenvex\src\tenvex\expressions\core\core_sse.h
; Line 133
	movups	xmm2, XMMWORD PTR [rcx]
; Line 114
	mulps	xmm2, xmm2
; Line 116
	movaps	xmm1, xmm2
	movaps	xmm0, xmm2
	shufps	xmm0, xmm2, 85				; 00000055H
	addss	xmm1, xmm0
; Line 117
	movhlps	xmm2, xmm2
; Line 118
	addss	xmm1, xmm2
; Line 119
	shufps	xmm1, xmm1, 0
; Line 133
	sqrtps	xmm0, xmm1
; Line 134
	ret	0
?magnitude3@detail@tnvx@@YA?AT__m128@@T3@@Z ENDP	; tnvx::detail::magnitude3
_TEXT	ENDS
; Function compile flags: /Ogtpy
;	COMDAT ?normalize3@detail@tnvx@@YA?AT__m128@@T3@@Z
_TEXT	SEGMENT
v$ = 8
?normalize3@detail@tnvx@@YA?AT__m128@@T3@@Z PROC	; tnvx::detail::normalize3, COMDAT
; File C:\Users\artem.zyktin\projects\tenvex\src\tenvex\expressions\core\core_sse.h
; Line 157
	movups	xmm3, XMMWORD PTR [rcx]
; Line 114
	movaps	xmm2, xmm3
	mulps	xmm2, xmm3
; Line 116
	movaps	xmm1, xmm2
	movaps	xmm0, xmm2
	shufps	xmm0, xmm2, 85				; 00000055H
	addss	xmm1, xmm0
; Line 117
	movhlps	xmm2, xmm2
; Line 157
	movaps	xmm0, xmm3
; Line 118
	addss	xmm1, xmm2
; Line 119
	shufps	xmm1, xmm1, 0
; Line 133
	sqrtps	xmm1, xmm1
; Line 157
	divps	xmm0, xmm1
	blendps	xmm0, xmm3, 8
; Line 158
	ret	0
?normalize3@detail@tnvx@@YA?AT__m128@@T3@@Z ENDP	; tnvx::detail::normalize3
_TEXT	ENDS
; Function compile flags: /Ogtpy
;	COMDAT ??0Scalar@tnvx@@QEAA@M@Z
_TEXT	SEGMENT
this$ = 8
value$ = 16
??0Scalar@tnvx@@QEAA@M@Z PROC				; tnvx::Scalar::Scalar, COMDAT
; File C:\Users\artem.zyktin\projects\tenvex\src\tenvex\expressions\common\scalar_impl.hpp
; File C:\Users\artem.zyktin\projects\tenvex\src\tenvex\expressions\core\core_sse.h
; Line 58
	shufps	xmm1, xmm1, 0
; File C:\Users\artem.zyktin\projects\tenvex\src\tenvex\expressions\common\scalar_impl.hpp
; Line 12
	mov	rax, rcx
	movups	XMMWORD PTR [rcx], xmm1
	ret	0
??0Scalar@tnvx@@QEAA@M@Z ENDP				; tnvx::Scalar::Scalar
_TEXT	ENDS
; Function compile flags: /Ogtpy
;	COMDAT ?eval@Scalar@tnvx@@QEBA?AT__m128@@XZ
_TEXT	SEGMENT
this$ = 8
__$ReturnUdt$ = 16
?eval@Scalar@tnvx@@QEBA?AT__m128@@XZ PROC		; tnvx::Scalar::eval, COMDAT
; File C:\Users\artem.zyktin\projects\tenvex\src\tenvex\expressions\common\scalar_impl.hpp
; Line 17
	movups	xmm0, XMMWORD PTR [rcx]
	mov	rax, rdx
	movups	XMMWORD PTR [rdx], xmm0
; Line 18
	ret	0
?eval@Scalar@tnvx@@QEBA?AT__m128@@XZ ENDP		; tnvx::Scalar::eval
_TEXT	ENDS
; Function compile flags: /Ogtpy
;	COMDAT ?eval@vec4@tnvx@@QEBA?AT__m128@@XZ
_TEXT	SEGMENT
this$ = 8
__$ReturnUdt$ = 16
?eval@vec4@tnvx@@QEBA?AT__m128@@XZ PROC			; tnvx::vec4::eval, COMDAT
; File C:\Users\artem.zyktin\projects\tenvex\src\tenvex\expressions\vec\vec4_impl.hpp
; Line 17
	movups	xmm0, XMMWORD PTR [rcx]
	mov	rax, rdx
	movups	XMMWORD PTR [rdx], xmm0
; Line 18
	ret	0
?eval@vec4@tnvx@@QEBA?AT__m128@@XZ ENDP			; tnvx::vec4::eval
_TEXT	ENDS
; Function compile flags: /Ogtpy
;	COMDAT ??$dot3@Uvec4@tnvx@@U12@@tnvx@@YA?AU?$Dot3@Uvec4@tnvx@@U12@@0@AEBUvec4@0@0@Z
_TEXT	SEGMENT
__$ReturnUdt$ = 8
l$ = 16
r$ = 24
??$dot3@Uvec4@tnvx@@U12@@tnvx@@YA?AU?$Dot3@Uvec4@tnvx@@U12@@0@AEBUvec4@0@0@Z PROC ; tnvx::dot3<tnvx::vec4,tnvx::vec4>, COMDAT
; File C:\Users\artem.zyktin\projects\tenvex\src\tenvex\expressions\vec\dot3_impl.hpp
; Line 11
	movaps	xmm0, XMMWORD PTR [rdx]
; Line 34
	mov	rax, rcx
; Line 12
	movaps	xmm1, XMMWORD PTR [r8]
	movups	XMMWORD PTR [rcx], xmm0
	movups	XMMWORD PTR [rcx+16], xmm1
; Line 35
	ret	0
??$dot3@Uvec4@tnvx@@U12@@tnvx@@YA?AU?$Dot3@Uvec4@tnvx@@U12@@0@AEBUvec4@0@0@Z ENDP ; tnvx::dot3<tnvx::vec4,tnvx::vec4>
_TEXT	ENDS
; Function compile flags: /Ogtpy
;	COMDAT ??0?$Dot3@Uvec4@tnvx@@U12@@tnvx@@QEAA@AEIBUvec4@1@0@Z
_TEXT	SEGMENT
this$ = 8
l$ = 16
r$ = 24
??0?$Dot3@Uvec4@tnvx@@U12@@tnvx@@QEAA@AEIBUvec4@1@0@Z PROC ; tnvx::Dot3<tnvx::vec4,tnvx::vec4>::Dot3<tnvx::vec4,tnvx::vec4>, COMDAT
; File C:\Users\artem.zyktin\projects\tenvex\src\tenvex\expressions\vec\dot3_impl.hpp
; Line 11
	movaps	xmm0, XMMWORD PTR [rdx]
; Line 14
	mov	rax, rcx
	movaps	xmm1, XMMWORD PTR [r8]
	movups	XMMWORD PTR [rcx], xmm0
	movups	XMMWORD PTR [rcx+16], xmm1
	ret	0
??0?$Dot3@Uvec4@tnvx@@U12@@tnvx@@QEAA@AEIBUvec4@1@0@Z ENDP ; tnvx::Dot3<tnvx::vec4,tnvx::vec4>::Dot3<tnvx::vec4,tnvx::vec4>
_TEXT	ENDS
; Function compile flags: /Ogtpy
;	COMDAT ?eval@?$Dot3@Uvec4@tnvx@@U12@@tnvx@@QEBA?AT__m128@@XZ
_TEXT	SEGMENT
this$ = 8
__$ReturnUdt$ = 16
?eval@?$Dot3@Uvec4@tnvx@@U12@@tnvx@@QEBA?AT__m128@@XZ PROC ; tnvx::Dot3<tnvx::vec4,tnvx::vec4>::eval, COMDAT
; File C:\Users\artem.zyktin\projects\tenvex\src\tenvex\expressions\vec\dot3_impl.hpp
; File C:\Users\artem.zyktin\projects\tenvex\src\tenvex\expressions\core\core_sse.h
; Line 114
	movups	xmm2, XMMWORD PTR [rcx+16]
; File C:\Users\artem.zyktin\projects\tenvex\src\tenvex\expressions\vec\dot3_impl.hpp
; Line 20
	mov	rax, rdx
; File C:\Users\artem.zyktin\projects\tenvex\src\tenvex\expressions\core\core_sse.h
; Line 114
	mulps	xmm2, XMMWORD PTR [rcx]
; Line 116
	movaps	xmm1, xmm2
	movaps	xmm0, xmm2
	shufps	xmm0, xmm2, 85				; 00000055H
	addss	xmm1, xmm0
; Line 117
	movhlps	xmm2, xmm2
; Line 118
	addss	xmm1, xmm2
; Line 119
	shufps	xmm1, xmm1, 0
; File C:\Users\artem.zyktin\projects\tenvex\src\tenvex\expressions\vec\dot3_impl.hpp
; Line 20
	movups	XMMWORD PTR [rdx], xmm1
; Line 21
	ret	0
?eval@?$Dot3@Uvec4@tnvx@@U12@@tnvx@@QEBA?AT__m128@@XZ ENDP ; tnvx::Dot3<tnvx::vec4,tnvx::vec4>::eval
_TEXT	ENDS
; Function compile flags: /Ogtpy
;	COMDAT cg_compound_et
_TEXT	SEGMENT
va$ = 48
vb$ = 56
vc$ = 64
out$ = 72
n$ = 80
cg_compound_et PROC					; COMDAT
; File C:\Users\artem.zyktin\projects\tenvex\src\codegen\cg_compound.cpp
; Line 17
$LN137:
	sub	rsp, 40					; 00000028H
; Line 18
	mov	r10, QWORD PTR n$[rsp]
	xor	r11d, r11d
	test	r10, r10
	je	$LN3@cg_compoun
	movaps	XMMWORD PTR [rsp+16], xmm6
	movdqa	xmm6, XMMWORD PTR __xmm@40400000404000004040000040400000
	movaps	XMMWORD PTR [rsp], xmm7
	movdqa	xmm7, XMMWORD PTR __xmm@40000000400000004000000040000000
	npad	2
$LL4@cg_compoun:
; Line 19
	mov	rax, r11
; File C:\Users\artem.zyktin\projects\tenvex\src\tenvex\expressions\core\core_sse.h
; Line 101
	movaps	xmm2, xmm6
; File C:\Users\artem.zyktin\projects\tenvex\src\codegen\cg_compound.cpp
; Line 19
	add	rax, rax
	inc	r11
; File C:\Users\artem.zyktin\projects\tenvex\src\tenvex\expressions\vec\dot3_impl.hpp
; Line 12
	movups	xmm5, XMMWORD PTR [r8+rax*8]
; File C:\Users\artem.zyktin\projects\tenvex\src\tenvex\expressions\core\core_sse.h
; Line 114
	mulps	xmm5, XMMWORD PTR [rdx+rax*8]
; File C:\Users\artem.zyktin\projects\tenvex\src\tenvex\expressions\common\add_impl.hpp
; Line 12
	movups	xmm4, XMMWORD PTR [rcx+rax*8]
; File C:\Users\artem.zyktin\projects\tenvex\src\tenvex\expressions\core\core_sse.h
; Line 101
	mulps	xmm2, XMMWORD PTR [r8+rax*8]
; Line 115
	movaps	xmm0, xmm5
; Line 117
	movaps	xmm1, xmm5
	movhlps	xmm1, xmm5
	shufps	xmm0, xmm5, 85				; 00000055H
	addss	xmm5, xmm0
; Line 101
	movaps	xmm0, xmm7
	mulps	xmm0, XMMWORD PTR [rdx+rax*8]
; Line 118
	addss	xmm5, xmm1
; Line 89
	addps	xmm4, xmm0
; Line 119
	shufps	xmm5, xmm5, 0
; Line 114
	movaps	xmm3, xmm4
	mulps	xmm3, xmm4
; Line 115
	movaps	xmm0, xmm3
; Line 117
	movaps	xmm1, xmm3
	movhlps	xmm1, xmm3
	shufps	xmm0, xmm3, 85				; 00000055H
	addss	xmm3, xmm0
; Line 118
	addss	xmm3, xmm1
; Line 157
	movaps	xmm1, xmm4
; Line 119
	shufps	xmm3, xmm3, 0
; Line 133
	sqrtps	xmm0, xmm3
; Line 157
	divps	xmm1, xmm0
	blendps	xmm1, xmm4, 8
; Line 101
	mulps	xmm1, xmm5
; Line 89
	addps	xmm1, xmm2
; File C:\Users\artem.zyktin\projects\tenvex\src\codegen\cg_compound.cpp
; Line 19
	movups	XMMWORD PTR [r9+rax*8], xmm1
	cmp	r11, r10
	jb	SHORT $LL4@cg_compoun
; Line 18
	movaps	xmm7, XMMWORD PTR [rsp]
	movaps	xmm6, XMMWORD PTR [rsp+16]
$LN3@cg_compoun:
; Line 21
	add	rsp, 40					; 00000028H
	ret	0
cg_compound_et ENDP
_TEXT	ENDS
; Function compile flags: /Ogtpy
;	COMDAT ??$?DUvec4@tnvx@@@tnvx@@YA?AU?$Mul@Uvec4@tnvx@@UScalar@2@@0@AEBUvec4@0@M@Z
_TEXT	SEGMENT
__$ReturnUdt$ = 8
l$ = 16
r$ = 24
??$?DUvec4@tnvx@@@tnvx@@YA?AU?$Mul@Uvec4@tnvx@@UScalar@2@@0@AEBUvec4@0@M@Z PROC ; tnvx::operator*<tnvx::vec4>, COMDAT
; File C:\Users\artem.zyktin\projects\tenvex\src\tenvex\expressions\common\mul_impl.hpp
; Line 12
	movups	xmm0, XMMWORD PTR [rdx]
; Line 29
	mov	rax, rcx
; File C:\Users\artem.zyktin\projects\tenvex\src\tenvex\expressions\core\core_sse.h
; Line 58
	shufps	xmm2, xmm2, 0
; File C:\Users\artem.zyktin\projects\tenvex\src\tenvex\expressions\common\mul_impl.hpp
; Line 12
	movups	XMMWORD PTR [rcx], xmm0
; Line 13
	movups	XMMWORD PTR [rcx+16], xmm2
; Line 30
	ret	0
??$?DUvec4@tnvx@@@tnvx@@YA?AU?$Mul@Uvec4@tnvx@@UScalar@2@@0@AEBUvec4@0@M@Z ENDP ; tnvx::operator*<tnvx::vec4>
_TEXT	ENDS
; Function compile flags: /Ogtpy
;	COMDAT ??0?$Mul@Uvec4@tnvx@@UScalar@2@@tnvx@@QEAA@AEIBUvec4@1@AEIBUScalar@1@@Z
_TEXT	SEGMENT
this$ = 8
l$ = 16
r$ = 24
??0?$Mul@Uvec4@tnvx@@UScalar@2@@tnvx@@QEAA@AEIBUvec4@1@AEIBUScalar@1@@Z PROC ; tnvx::Mul<tnvx::vec4,tnvx::Scalar>::Mul<tnvx::vec4,tnvx::Scalar>, COMDAT
; File C:\Users\artem.zyktin\projects\tenvex\src\tenvex\expressions\common\mul_impl.hpp
; Line 12
	movaps	xmm0, XMMWORD PTR [rdx]
; Line 15
	mov	rax, rcx
	movaps	xmm1, XMMWORD PTR [r8]
	movups	XMMWORD PTR [rcx], xmm0
	movups	XMMWORD PTR [rcx+16], xmm1
	ret	0
??0?$Mul@Uvec4@tnvx@@UScalar@2@@tnvx@@QEAA@AEIBUvec4@1@AEIBUScalar@1@@Z ENDP ; tnvx::Mul<tnvx::vec4,tnvx::Scalar>::Mul<tnvx::vec4,tnvx::Scalar>
_TEXT	ENDS
; Function compile flags: /Ogtpy
;	COMDAT ?eval@?$Mul@Uvec4@tnvx@@UScalar@2@@tnvx@@QEBA?AT__m128@@XZ
_TEXT	SEGMENT
this$ = 8
__$ReturnUdt$ = 16
?eval@?$Mul@Uvec4@tnvx@@UScalar@2@@tnvx@@QEBA?AT__m128@@XZ PROC ; tnvx::Mul<tnvx::vec4,tnvx::Scalar>::eval, COMDAT
; File C:\Users\artem.zyktin\projects\tenvex\src\tenvex\expressions\common\mul_impl.hpp
; File C:\Users\artem.zyktin\projects\tenvex\src\tenvex\expressions\core\core_sse.h
; Line 101
	movups	xmm0, XMMWORD PTR [rcx+16]
; File C:\Users\artem.zyktin\projects\tenvex\src\tenvex\expressions\common\mul_impl.hpp
; Line 22
	mov	rax, rdx
; File C:\Users\artem.zyktin\projects\tenvex\src\tenvex\expressions\core\core_sse.h
; Line 101
	mulps	xmm0, XMMWORD PTR [rcx]
; File C:\Users\artem.zyktin\projects\tenvex\src\tenvex\expressions\common\mul_impl.hpp
; Line 22
	movups	XMMWORD PTR [rdx], xmm0
; Line 23
	ret	0
?eval@?$Mul@Uvec4@tnvx@@UScalar@2@@tnvx@@QEBA?AT__m128@@XZ ENDP ; tnvx::Mul<tnvx::vec4,tnvx::Scalar>::eval
_TEXT	ENDS
; Function compile flags: /Ogtpy
;	COMDAT ??$?HUvec4@tnvx@@U?$Mul@Uvec4@tnvx@@UScalar@2@@1@@tnvx@@YA?AU?$Add@Uvec4@tnvx@@U?$Mul@Uvec4@tnvx@@UScalar@2@@2@@0@AEBUvec4@0@AEBU?$Mul@Uvec4@tnvx@@UScalar@2@@0@@Z
_TEXT	SEGMENT
__$ReturnUdt$ = 8
l$ = 16
r$ = 24
??$?HUvec4@tnvx@@U?$Mul@Uvec4@tnvx@@UScalar@2@@1@@tnvx@@YA?AU?$Add@Uvec4@tnvx@@U?$Mul@Uvec4@tnvx@@UScalar@2@@2@@0@AEBUvec4@0@AEBU?$Mul@Uvec4@tnvx@@UScalar@2@@0@@Z PROC ; tnvx::operator+<tnvx::vec4,tnvx::Mul<tnvx::vec4,tnvx::Scalar> >, COMDAT
; File C:\Users\artem.zyktin\projects\tenvex\src\tenvex\expressions\common\add_impl.hpp
; Line 12
	movaps	xmm0, XMMWORD PTR [rdx]
; Line 38
	mov	rax, rcx
; Line 12
	movups	XMMWORD PTR [rcx], xmm0
; Line 13
	mov	QWORD PTR [rcx+16], r8
; Line 39
	ret	0
??$?HUvec4@tnvx@@U?$Mul@Uvec4@tnvx@@UScalar@2@@1@@tnvx@@YA?AU?$Add@Uvec4@tnvx@@U?$Mul@Uvec4@tnvx@@UScalar@2@@2@@0@AEBUvec4@0@AEBU?$Mul@Uvec4@tnvx@@UScalar@2@@0@@Z ENDP ; tnvx::operator+<tnvx::vec4,tnvx::Mul<tnvx::vec4,tnvx::Scalar> >
_TEXT	ENDS
; Function compile flags: /Ogtpy
;	COMDAT ??0?$Add@Uvec4@tnvx@@U?$Mul@Uvec4@tnvx@@UScalar@2@@2@@tnvx@@QEAA@AEIBUvec4@1@AEIBU?$Mul@Uvec4@tnvx@@UScalar@2@@1@@Z
_TEXT	SEGMENT
this$ = 8
l$ = 16
r$ = 24
??0?$Add@Uvec4@tnvx@@U?$Mul@Uvec4@tnvx@@UScalar@2@@2@@tnvx@@QEAA@AEIBUvec4@1@AEIBU?$Mul@Uvec4@tnvx@@UScalar@2@@1@@Z PROC ; tnvx::Add<tnvx::vec4,tnvx::Mul<tnvx::vec4,tnvx::Scalar> >::Add<tnvx::vec4,tnvx::Mul<tnvx::vec4,tnvx::Scalar> >, COMDAT
; File C:\Users\artem.zyktin\projects\tenvex\src\tenvex\expressions\common\add_impl.hpp
; Line 12
	movaps	xmm0, XMMWORD PTR [rdx]
; Line 15
	mov	rax, rcx
	movups	XMMWORD PTR [rcx], xmm0
	mov	QWORD PTR [rcx+16], r8
	ret	0
??0?$Add@Uvec4@tnvx@@U?$Mul@Uvec4@tnvx@@UScalar@2@@2@@tnvx@@QEAA@AEIBUvec4@1@AEIBU?$Mul@Uvec4@tnvx@@UScalar@2@@1@@Z ENDP ; tnvx::Add<tnvx::vec4,tnvx::Mul<tnvx::vec4,tnvx::Scalar> >::Add<tnvx::vec4,tnvx::Mul<tnvx::vec4,tnvx::Scalar> >
_TEXT	ENDS
; Function compile flags: /Ogtpy
;	COMDAT ?eval@?$Add@Uvec4@tnvx@@U?$Mul@Uvec4@tnvx@@UScalar@2@@2@@tnvx@@QEBA?AT__m128@@XZ
_TEXT	SEGMENT
this$ = 8
__$ReturnUdt$ = 16
?eval@?$Add@Uvec4@tnvx@@U?$Mul@Uvec4@tnvx@@UScalar@2@@2@@tnvx@@QEBA?AT__m128@@XZ PROC ; tnvx::Add<tnvx::vec4,tnvx::Mul<tnvx::vec4,tnvx::Scalar> >::eval, COMDAT
; File C:\Users\artem.zyktin\projects\tenvex\src\tenvex\expressions\common\add_impl.hpp
; Line 22
	mov	rax, QWORD PTR [rcx+16]
; File C:\Users\artem.zyktin\projects\tenvex\src\tenvex\expressions\core\core_sse.h
; Line 101
	movups	xmm0, XMMWORD PTR [rax+16]
	mulps	xmm0, XMMWORD PTR [rax]
; File C:\Users\artem.zyktin\projects\tenvex\src\tenvex\expressions\common\add_impl.hpp
; Line 22
	mov	rax, rdx
; File C:\Users\artem.zyktin\projects\tenvex\src\tenvex\expressions\core\core_sse.h
; Line 89
	addps	xmm0, XMMWORD PTR [rcx]
; File C:\Users\artem.zyktin\projects\tenvex\src\tenvex\expressions\common\add_impl.hpp
; Line 22
	movups	XMMWORD PTR [rdx], xmm0
; Line 23
	ret	0
?eval@?$Add@Uvec4@tnvx@@U?$Mul@Uvec4@tnvx@@UScalar@2@@2@@tnvx@@QEBA?AT__m128@@XZ ENDP ; tnvx::Add<tnvx::vec4,tnvx::Mul<tnvx::vec4,tnvx::Scalar> >::eval
_TEXT	ENDS
; Function compile flags: /Ogtpy
;	COMDAT ??$normalize3@U?$Add@Uvec4@tnvx@@U?$Mul@Uvec4@tnvx@@UScalar@2@@2@@tnvx@@@tnvx@@YA?AU?$Normalize3@U?$Add@Uvec4@tnvx@@U?$Mul@Uvec4@tnvx@@UScalar@2@@2@@tnvx@@@0@AEBU?$Add@Uvec4@tnvx@@U?$Mul@Uvec4@tnvx@@UScalar@2@@2@@0@@Z
_TEXT	SEGMENT
__$ReturnUdt$ = 8
e$ = 16
??$normalize3@U?$Add@Uvec4@tnvx@@U?$Mul@Uvec4@tnvx@@UScalar@2@@2@@tnvx@@@tnvx@@YA?AU?$Normalize3@U?$Add@Uvec4@tnvx@@U?$Mul@Uvec4@tnvx@@UScalar@2@@2@@tnvx@@@0@AEBU?$Add@Uvec4@tnvx@@U?$Mul@Uvec4@tnvx@@UScalar@2@@2@@0@@Z PROC ; tnvx::normalize3<tnvx::Add<tnvx::vec4,tnvx::Mul<tnvx::vec4,tnvx::Scalar> > >, COMDAT
; File C:\Users\artem.zyktin\projects\tenvex\src\tenvex\expressions\common\normalize3_impl.hpp
; Line 11
	mov	QWORD PTR [rcx], rdx
; Line 26
	mov	rax, rcx
; Line 27
	ret	0
??$normalize3@U?$Add@Uvec4@tnvx@@U?$Mul@Uvec4@tnvx@@UScalar@2@@2@@tnvx@@@tnvx@@YA?AU?$Normalize3@U?$Add@Uvec4@tnvx@@U?$Mul@Uvec4@tnvx@@UScalar@2@@2@@tnvx@@@0@AEBU?$Add@Uvec4@tnvx@@U?$Mul@Uvec4@tnvx@@UScalar@2@@2@@0@@Z ENDP ; tnvx::normalize3<tnvx::Add<tnvx::vec4,tnvx::Mul<tnvx::vec4,tnvx::Scalar> > >
_TEXT	ENDS
; Function compile flags: /Ogtpy
;	COMDAT ??0?$Normalize3@U?$Add@Uvec4@tnvx@@U?$Mul@Uvec4@tnvx@@UScalar@2@@2@@tnvx@@@tnvx@@QEAA@AEIBU?$Add@Uvec4@tnvx@@U?$Mul@Uvec4@tnvx@@UScalar@2@@2@@1@@Z
_TEXT	SEGMENT
this$ = 8
e$ = 16
??0?$Normalize3@U?$Add@Uvec4@tnvx@@U?$Mul@Uvec4@tnvx@@UScalar@2@@2@@tnvx@@@tnvx@@QEAA@AEIBU?$Add@Uvec4@tnvx@@U?$Mul@Uvec4@tnvx@@UScalar@2@@2@@1@@Z PROC ; tnvx::Normalize3<tnvx::Add<tnvx::vec4,tnvx::Mul<tnvx::vec4,tnvx::Scalar> > >::Normalize3<tnvx::Add<tnvx::vec4,tnvx::Mul<tnvx::vec4,tnvx::Scalar> > >, COMDAT
; File C:\Users\artem.zyktin\projects\tenvex\src\tenvex\expressions\common\normalize3_impl.hpp
; Line 11
	mov	QWORD PTR [rcx], rdx
; Line 13
	mov	rax, rcx
	ret	0
??0?$Normalize3@U?$Add@Uvec4@tnvx@@U?$Mul@Uvec4@tnvx@@UScalar@2@@2@@tnvx@@@tnvx@@QEAA@AEIBU?$Add@Uvec4@tnvx@@U?$Mul@Uvec4@tnvx@@UScalar@2@@2@@1@@Z ENDP ; tnvx::Normalize3<tnvx::Add<tnvx::vec4,tnvx::Mul<tnvx::vec4,tnvx::Scalar> > >::Normalize3<tnvx::Add<tnvx::vec4,tnvx::Mul<tnvx::vec4,tnvx::Scalar> > >
_TEXT	ENDS
; Function compile flags: /Ogtpy
;	COMDAT ?eval@?$Normalize3@U?$Add@Uvec4@tnvx@@U?$Mul@Uvec4@tnvx@@UScalar@2@@2@@tnvx@@@tnvx@@QEBA?AT__m128@@XZ
_TEXT	SEGMENT
this$ = 8
__$ReturnUdt$ = 16
?eval@?$Normalize3@U?$Add@Uvec4@tnvx@@U?$Mul@Uvec4@tnvx@@UScalar@2@@2@@tnvx@@@tnvx@@QEBA?AT__m128@@XZ PROC ; tnvx::Normalize3<tnvx::Add<tnvx::vec4,tnvx::Mul<tnvx::vec4,tnvx::Scalar> > >::eval, COMDAT
; File C:\Users\artem.zyktin\projects\tenvex\src\tenvex\expressions\common\normalize3_impl.hpp
; Line 19
	mov	r8, QWORD PTR [rcx]
; File C:\Users\artem.zyktin\projects\tenvex\src\tenvex\expressions\common\add_impl.hpp
; Line 22
	mov	rax, QWORD PTR [r8+16]
; File C:\Users\artem.zyktin\projects\tenvex\src\tenvex\expressions\core\core_sse.h
; Line 101
	movups	xmm3, XMMWORD PTR [rax+16]
	mulps	xmm3, XMMWORD PTR [rax]
; File C:\Users\artem.zyktin\projects\tenvex\src\tenvex\expressions\common\normalize3_impl.hpp
; Line 19
	mov	rax, rdx
; File C:\Users\artem.zyktin\projects\tenvex\src\tenvex\expressions\core\core_sse.h
; Line 89
	addps	xmm3, XMMWORD PTR [r8]
; Line 114
	movaps	xmm2, xmm3
	mulps	xmm2, xmm3
; Line 116
	movaps	xmm1, xmm2
	movaps	xmm0, xmm2
	shufps	xmm0, xmm2, 85				; 00000055H
	addss	xmm1, xmm0
; Line 117
	movhlps	xmm2, xmm2
; Line 118
	addss	xmm1, xmm2
; Line 119
	shufps	xmm1, xmm1, 0
; Line 133
	sqrtps	xmm0, xmm1
; Line 157
	movaps	xmm1, xmm3
	divps	xmm1, xmm0
	blendps	xmm1, xmm3, 8
; File C:\Users\artem.zyktin\projects\tenvex\src\tenvex\expressions\common\normalize3_impl.hpp
; Line 19
	movups	XMMWORD PTR [rdx], xmm1
; Line 20
	ret	0
?eval@?$Normalize3@U?$Add@Uvec4@tnvx@@U?$Mul@Uvec4@tnvx@@UScalar@2@@2@@tnvx@@@tnvx@@QEBA?AT__m128@@XZ ENDP ; tnvx::Normalize3<tnvx::Add<tnvx::vec4,tnvx::Mul<tnvx::vec4,tnvx::Scalar> > >::eval
_TEXT	ENDS
; Function compile flags: /Ogtpy
;	COMDAT ??$?DU?$Normalize3@U?$Add@Uvec4@tnvx@@U?$Mul@Uvec4@tnvx@@UScalar@2@@2@@tnvx@@@tnvx@@U?$Dot3@Uvec4@tnvx@@U12@@1@@tnvx@@YA?AU?$Mul@U?$Normalize3@U?$Add@Uvec4@tnvx@@U?$Mul@Uvec4@tnvx@@UScalar@2@@2@@tnvx@@@tnvx@@U?$Dot3@Uvec4@tnvx@@U12@@2@@0@AEBU?$Normalize3@U?$Add@Uvec4@tnvx@@U?$Mul@Uvec4@tnvx@@UScalar@2@@2@@tnvx@@@0@AEBU?$Dot3@Uvec4@tnvx@@U12@@0@@Z
_TEXT	SEGMENT
__$ReturnUdt$ = 8
l$ = 16
r$ = 24
??$?DU?$Normalize3@U?$Add@Uvec4@tnvx@@U?$Mul@Uvec4@tnvx@@UScalar@2@@2@@tnvx@@@tnvx@@U?$Dot3@Uvec4@tnvx@@U12@@1@@tnvx@@YA?AU?$Mul@U?$Normalize3@U?$Add@Uvec4@tnvx@@U?$Mul@Uvec4@tnvx@@UScalar@2@@2@@tnvx@@@tnvx@@U?$Dot3@Uvec4@tnvx@@U12@@2@@0@AEBU?$Normalize3@U?$Add@Uvec4@tnvx@@U?$Mul@Uvec4@tnvx@@UScalar@2@@2@@tnvx@@@0@AEBU?$Dot3@Uvec4@tnvx@@U12@@0@@Z PROC ; tnvx::operator*<tnvx::Normalize3<tnvx::Add<tnvx::vec4,tnvx::Mul<tnvx::vec4,tnvx::Scalar> > >,tnvx::Dot3<tnvx::vec4,tnvx::vec4> >, COMDAT
; File C:\Users\artem.zyktin\projects\tenvex\src\tenvex\expressions\common\mul_impl.hpp
; Line 12
	mov	rax, QWORD PTR [rdx]
	mov	QWORD PTR [rcx], rax
; Line 57
	mov	rax, rcx
; Line 13
	mov	QWORD PTR [rcx+8], r8
; Line 58
	ret	0
??$?DU?$Normalize3@U?$Add@Uvec4@tnvx@@U?$Mul@Uvec4@tnvx@@UScalar@2@@2@@tnvx@@@tnvx@@U?$Dot3@Uvec4@tnvx@@U12@@1@@tnvx@@YA?AU?$Mul@U?$Normalize3@U?$Add@Uvec4@tnvx@@U?$Mul@Uvec4@tnvx@@UScalar@2@@2@@tnvx@@@tnvx@@U?$Dot3@Uvec4@tnvx@@U12@@2@@0@AEBU?$Normalize3@U?$Add@Uvec4@tnvx@@U?$Mul@Uvec4@tnvx@@UScalar@2@@2@@tnvx@@@0@AEBU?$Dot3@Uvec4@tnvx@@U12@@0@@Z ENDP ; tnvx::operator*<tnvx::Normalize3<tnvx::Add<tnvx::vec4,tnvx::Mul<tnvx::vec4,tnvx::Scalar> > >,tnvx::Dot3<tnvx::vec4,tnvx::vec4> >
_TEXT	ENDS
; Function compile flags: /Ogtpy
;	COMDAT ??0?$Mul@U?$Normalize3@U?$Add@Uvec4@tnvx@@U?$Mul@Uvec4@tnvx@@UScalar@2@@2@@tnvx@@@tnvx@@U?$Dot3@Uvec4@tnvx@@U12@@2@@tnvx@@QEAA@AEIBU?$Normalize3@U?$Add@Uvec4@tnvx@@U?$Mul@Uvec4@tnvx@@UScalar@2@@2@@tnvx@@@1@AEIBU?$Dot3@Uvec4@tnvx@@U12@@1@@Z
_TEXT	SEGMENT
this$ = 8
l$ = 16
r$ = 24
??0?$Mul@U?$Normalize3@U?$Add@Uvec4@tnvx@@U?$Mul@Uvec4@tnvx@@UScalar@2@@2@@tnvx@@@tnvx@@U?$Dot3@Uvec4@tnvx@@U12@@2@@tnvx@@QEAA@AEIBU?$Normalize3@U?$Add@Uvec4@tnvx@@U?$Mul@Uvec4@tnvx@@UScalar@2@@2@@tnvx@@@1@AEIBU?$Dot3@Uvec4@tnvx@@U12@@1@@Z PROC ; tnvx::Mul<tnvx::Normalize3<tnvx::Add<tnvx::vec4,tnvx::Mul<tnvx::vec4,tnvx::Scalar> > >,tnvx::Dot3<tnvx::vec4,tnvx::vec4> >::Mul<tnvx::Normalize3<tnvx::Add<tnvx::vec4,tnvx::Mul<tnvx::vec4,tnvx::Scalar> > >,tnvx::Dot3<tnvx::vec4,tnvx::vec4> >, COMDAT
; File C:\Users\artem.zyktin\projects\tenvex\src\tenvex\expressions\common\mul_impl.hpp
; Line 12
	mov	rax, QWORD PTR [rdx]
	mov	QWORD PTR [rcx], rax
; Line 15
	mov	rax, rcx
	mov	QWORD PTR [rcx+8], r8
	ret	0
??0?$Mul@U?$Normalize3@U?$Add@Uvec4@tnvx@@U?$Mul@Uvec4@tnvx@@UScalar@2@@2@@tnvx@@@tnvx@@U?$Dot3@Uvec4@tnvx@@U12@@2@@tnvx@@QEAA@AEIBU?$Normalize3@U?$Add@Uvec4@tnvx@@U?$Mul@Uvec4@tnvx@@UScalar@2@@2@@tnvx@@@1@AEIBU?$Dot3@Uvec4@tnvx@@U12@@1@@Z ENDP ; tnvx::Mul<tnvx::Normalize3<tnvx::Add<tnvx::vec4,tnvx::Mul<tnvx::vec4,tnvx::Scalar> > >,tnvx::Dot3<tnvx::vec4,tnvx::vec4> >::Mul<tnvx::Normalize3<tnvx::Add<tnvx::vec4,tnvx::Mul<tnvx::vec4,tnvx::Scalar> > >,tnvx::Dot3<tnvx::vec4,tnvx::vec4> >
_TEXT	ENDS
; Function compile flags: /Ogtpy
;	COMDAT ?eval@?$Mul@U?$Normalize3@U?$Add@Uvec4@tnvx@@U?$Mul@Uvec4@tnvx@@UScalar@2@@2@@tnvx@@@tnvx@@U?$Dot3@Uvec4@tnvx@@U12@@2@@tnvx@@QEBA?AT__m128@@XZ
_TEXT	SEGMENT
this$ = 8
__$ReturnUdt$ = 16
?eval@?$Mul@U?$Normalize3@U?$Add@Uvec4@tnvx@@U?$Mul@Uvec4@tnvx@@UScalar@2@@2@@tnvx@@@tnvx@@U?$Dot3@Uvec4@tnvx@@U12@@2@@tnvx@@QEBA?AT__m128@@XZ PROC ; tnvx::Mul<tnvx::Normalize3<tnvx::Add<tnvx::vec4,tnvx::Mul<tnvx::vec4,tnvx::Scalar> > >,tnvx::Dot3<tnvx::vec4,tnvx::vec4> >::eval, COMDAT
; File C:\Users\artem.zyktin\projects\tenvex\src\tenvex\expressions\common\mul_impl.hpp
; Line 22
	mov	rax, QWORD PTR [rcx+8]
; File C:\Users\artem.zyktin\projects\tenvex\src\tenvex\expressions\common\normalize3_impl.hpp
; Line 19
	mov	rcx, QWORD PTR [rcx]
; File C:\Users\artem.zyktin\projects\tenvex\src\tenvex\expressions\core\core_sse.h
; Line 114
	movups	xmm1, XMMWORD PTR [rax+16]
	mulps	xmm1, XMMWORD PTR [rax]
; File C:\Users\artem.zyktin\projects\tenvex\src\tenvex\expressions\common\add_impl.hpp
; Line 22
	mov	rax, QWORD PTR [rcx+16]
; File C:\Users\artem.zyktin\projects\tenvex\src\tenvex\expressions\core\core_sse.h
; Line 101
	movups	xmm3, XMMWORD PTR [rax+16]
; Line 116
	movaps	xmm4, xmm1
; Line 101
	mulps	xmm3, XMMWORD PTR [rax]
; Line 115
	movaps	xmm0, xmm1
; File C:\Users\artem.zyktin\projects\tenvex\src\tenvex\expressions\common\mul_impl.hpp
; Line 22
	mov	rax, rdx
; File C:\Users\artem.zyktin\projects\tenvex\src\tenvex\expressions\core\core_sse.h
; Line 115
	shufps	xmm0, xmm1, 85				; 00000055H
; Line 117
	movhlps	xmm1, xmm1
	addss	xmm4, xmm0
; Line 89
	addps	xmm3, XMMWORD PTR [rcx]
; Line 118
	addss	xmm4, xmm1
; Line 114
	movaps	xmm2, xmm3
	mulps	xmm2, xmm3
; Line 119
	shufps	xmm4, xmm4, 0
; Line 115
	movaps	xmm0, xmm2
; Line 117
	movaps	xmm1, xmm2
	movhlps	xmm1, xmm2
	shufps	xmm0, xmm2, 85				; 00000055H
	addss	xmm2, xmm0
; Line 118
	addss	xmm2, xmm1
; Line 157
	movaps	xmm1, xmm3
; Line 119
	shufps	xmm2, xmm2, 0
; Line 133
	sqrtps	xmm0, xmm2
; Line 157
	divps	xmm1, xmm0
	blendps	xmm1, xmm3, 8
; Line 101
	mulps	xmm1, xmm4
; File C:\Users\artem.zyktin\projects\tenvex\src\tenvex\expressions\common\mul_impl.hpp
; Line 22
	movups	XMMWORD PTR [rdx], xmm1
; Line 23
	ret	0
?eval@?$Mul@U?$Normalize3@U?$Add@Uvec4@tnvx@@U?$Mul@Uvec4@tnvx@@UScalar@2@@2@@tnvx@@@tnvx@@U?$Dot3@Uvec4@tnvx@@U12@@2@@tnvx@@QEBA?AT__m128@@XZ ENDP ; tnvx::Mul<tnvx::Normalize3<tnvx::Add<tnvx::vec4,tnvx::Mul<tnvx::vec4,tnvx::Scalar> > >,tnvx::Dot3<tnvx::vec4,tnvx::vec4> >::eval
_TEXT	ENDS
; Function compile flags: /Ogtpy
;	COMDAT ??$?HU?$Mul@U?$Normalize3@U?$Add@Uvec4@tnvx@@U?$Mul@Uvec4@tnvx@@UScalar@2@@2@@tnvx@@@tnvx@@U?$Dot3@Uvec4@tnvx@@U12@@2@@tnvx@@U?$Mul@Uvec4@tnvx@@UScalar@2@@1@@tnvx@@YA?AU?$Add@U?$Mul@U?$Normalize3@U?$Add@Uvec4@tnvx@@U?$Mul@Uvec4@tnvx@@UScalar@2@@2@@tnvx@@@tnvx@@U?$Dot3@Uvec4@tnvx@@U12@@2@@tnvx@@U?$Mul@Uvec4@tnvx@@UScalar@2@@2@@0@AEBU?$Mul@U?$Normalize3@U?$Add@Uvec4@tnvx@@U?$Mul@Uvec4@tnvx@@UScalar@2@@2@@tnvx@@@tnvx@@U?$Dot3@Uvec4@tnvx@@U12@@2@@0@AEBU?$Mul@Uvec4@tnvx@@UScalar@2@@0@@Z
_TEXT	SEGMENT
__$ReturnUdt$ = 8
l$ = 16
r$ = 24
??$?HU?$Mul@U?$Normalize3@U?$Add@Uvec4@tnvx@@U?$Mul@Uvec4@tnvx@@UScalar@2@@2@@tnvx@@@tnvx@@U?$Dot3@Uvec4@tnvx@@U12@@2@@tnvx@@U?$Mul@Uvec4@tnvx@@UScalar@2@@1@@tnvx@@YA?AU?$Add@U?$Mul@U?$Normalize3@U?$Add@Uvec4@tnvx@@U?$Mul@Uvec4@tnvx@@UScalar@2@@2@@tnvx@@@tnvx@@U?$Dot3@Uvec4@tnvx@@U12@@2@@tnvx@@U?$Mul@Uvec4@tnvx@@UScalar@2@@2@@0@AEBU?$Mul@U?$Normalize3@U?$Add@Uvec4@tnvx@@U?$Mul@Uvec4@tnvx@@UScalar@2@@2@@tnvx@@@tnvx@@U?$Dot3@Uvec4@tnvx@@U12@@2@@0@AEBU?$Mul@Uvec4@tnvx@@UScalar@2@@0@@Z PROC ; tnvx::operator+<tnvx::Mul<tnvx::Normalize3<tnvx::Add<tnvx::vec4,tnvx::Mul<tnvx::vec4,tnvx::Scalar> > >,tnvx::Dot3<tnvx::vec4,tnvx::vec4> >,tnvx::Mul<tnvx::vec4,tnvx::Scalar> >, COMDAT
; File C:\Users\artem.zyktin\projects\tenvex\src\tenvex\expressions\common\add_impl.hpp
; Line 12
	movups	xmm0, XMMWORD PTR [rdx]
; Line 13
	mov	QWORD PTR [rcx+16], r8
; Line 38
	mov	rax, rcx
; Line 12
	movups	XMMWORD PTR [rcx], xmm0
; Line 39
	ret	0
??$?HU?$Mul@U?$Normalize3@U?$Add@Uvec4@tnvx@@U?$Mul@Uvec4@tnvx@@UScalar@2@@2@@tnvx@@@tnvx@@U?$Dot3@Uvec4@tnvx@@U12@@2@@tnvx@@U?$Mul@Uvec4@tnvx@@UScalar@2@@1@@tnvx@@YA?AU?$Add@U?$Mul@U?$Normalize3@U?$Add@Uvec4@tnvx@@U?$Mul@Uvec4@tnvx@@UScalar@2@@2@@tnvx@@@tnvx@@U?$Dot3@Uvec4@tnvx@@U12@@2@@tnvx@@U?$Mul@Uvec4@tnvx@@UScalar@2@@2@@0@AEBU?$Mul@U?$Normalize3@U?$Add@Uvec4@tnvx@@U?$Mul@Uvec4@tnvx@@UScalar@2@@2@@tnvx@@@tnvx@@U?$Dot3@Uvec4@tnvx@@U12@@2@@0@AEBU?$Mul@Uvec4@tnvx@@UScalar@2@@0@@Z ENDP ; tnvx::operator+<tnvx::Mul<tnvx::Normalize3<tnvx::Add<tnvx::vec4,tnvx::Mul<tnvx::vec4,tnvx::Scalar> > >,tnvx::Dot3<tnvx::vec4,tnvx::vec4> >,tnvx::Mul<tnvx::vec4,tnvx::Scalar> >
_TEXT	ENDS
; Function compile flags: /Ogtpy
;	COMDAT ??0?$Add@U?$Mul@U?$Normalize3@U?$Add@Uvec4@tnvx@@U?$Mul@Uvec4@tnvx@@UScalar@2@@2@@tnvx@@@tnvx@@U?$Dot3@Uvec4@tnvx@@U12@@2@@tnvx@@U?$Mul@Uvec4@tnvx@@UScalar@2@@2@@tnvx@@QEAA@AEIBU?$Mul@U?$Normalize3@U?$Add@Uvec4@tnvx@@U?$Mul@Uvec4@tnvx@@UScalar@2@@2@@tnvx@@@tnvx@@U?$Dot3@Uvec4@tnvx@@U12@@2@@1@AEIBU?$Mul@Uvec4@tnvx@@UScalar@2@@1@@Z
_TEXT	SEGMENT
this$ = 8
l$ = 16
r$ = 24
??0?$Add@U?$Mul@U?$Normalize3@U?$Add@Uvec4@tnvx@@U?$Mul@Uvec4@tnvx@@UScalar@2@@2@@tnvx@@@tnvx@@U?$Dot3@Uvec4@tnvx@@U12@@2@@tnvx@@U?$Mul@Uvec4@tnvx@@UScalar@2@@2@@tnvx@@QEAA@AEIBU?$Mul@U?$Normalize3@U?$Add@Uvec4@tnvx@@U?$Mul@Uvec4@tnvx@@UScalar@2@@2@@tnvx@@@tnvx@@U?$Dot3@Uvec4@tnvx@@U12@@2@@1@AEIBU?$Mul@Uvec4@tnvx@@UScalar@2@@1@@Z PROC ; tnvx::Add<tnvx::Mul<tnvx::Normalize3<tnvx::Add<tnvx::vec4,tnvx::Mul<tnvx::vec4,tnvx::Scalar> > >,tnvx::Dot3<tnvx::vec4,tnvx::vec4> >,tnvx::Mul<tnvx::vec4,tnvx::Scalar> >::Add<tnvx::Mul<tnvx::Normalize3<tnvx::Add<tnvx::vec4,tnvx::Mul<tnvx::vec4,tnvx::Scalar> > >,tnvx::Dot3<tnvx::vec4,tnvx::vec4> >,tnvx::Mul<tnvx::vec4,tnvx::Scalar> >, COMDAT
; File C:\Users\artem.zyktin\projects\tenvex\src\tenvex\expressions\common\add_impl.hpp
; Line 12
	movups	xmm0, XMMWORD PTR [rdx]
; Line 13
	mov	QWORD PTR [rcx+16], r8
; Line 15
	mov	rax, rcx
	movups	XMMWORD PTR [rcx], xmm0
	ret	0
??0?$Add@U?$Mul@U?$Normalize3@U?$Add@Uvec4@tnvx@@U?$Mul@Uvec4@tnvx@@UScalar@2@@2@@tnvx@@@tnvx@@U?$Dot3@Uvec4@tnvx@@U12@@2@@tnvx@@U?$Mul@Uvec4@tnvx@@UScalar@2@@2@@tnvx@@QEAA@AEIBU?$Mul@U?$Normalize3@U?$Add@Uvec4@tnvx@@U?$Mul@Uvec4@tnvx@@UScalar@2@@2@@tnvx@@@tnvx@@U?$Dot3@Uvec4@tnvx@@U12@@2@@1@AEIBU?$Mul@Uvec4@tnvx@@UScalar@2@@1@@Z ENDP ; tnvx::Add<tnvx::Mul<tnvx::Normalize3<tnvx::Add<tnvx::vec4,tnvx::Mul<tnvx::vec4,tnvx::Scalar> > >,tnvx::Dot3<tnvx::vec4,tnvx::vec4> >,tnvx::Mul<tnvx::vec4,tnvx::Scalar> >::Add<tnvx::Mul<tnvx::Normalize3<tnvx::Add<tnvx::vec4,tnvx::Mul<tnvx::vec4,tnvx::Scalar> > >,tnvx::Dot3<tnvx::vec4,tnvx::vec4> >,tnvx::Mul<tnvx::vec4,tnvx::Scalar> >
_TEXT	ENDS
; Function compile flags: /Ogtpy
;	COMDAT ?eval@?$Add@U?$Mul@U?$Normalize3@U?$Add@Uvec4@tnvx@@U?$Mul@Uvec4@tnvx@@UScalar@2@@2@@tnvx@@@tnvx@@U?$Dot3@Uvec4@tnvx@@U12@@2@@tnvx@@U?$Mul@Uvec4@tnvx@@UScalar@2@@2@@tnvx@@QEBA?AT__m128@@XZ
_TEXT	SEGMENT
this$ = 8
__$ReturnUdt$ = 16
?eval@?$Add@U?$Mul@U?$Normalize3@U?$Add@Uvec4@tnvx@@U?$Mul@Uvec4@tnvx@@UScalar@2@@2@@tnvx@@@tnvx@@U?$Dot3@Uvec4@tnvx@@U12@@2@@tnvx@@U?$Mul@Uvec4@tnvx@@UScalar@2@@2@@tnvx@@QEBA?AT__m128@@XZ PROC ; tnvx::Add<tnvx::Mul<tnvx::Normalize3<tnvx::Add<tnvx::vec4,tnvx::Mul<tnvx::vec4,tnvx::Scalar> > >,tnvx::Dot3<tnvx::vec4,tnvx::vec4> >,tnvx::Mul<tnvx::vec4,tnvx::Scalar> >::eval, COMDAT
; File C:\Users\artem.zyktin\projects\tenvex\src\tenvex\expressions\common\add_impl.hpp
; File C:\Users\artem.zyktin\projects\tenvex\src\tenvex\expressions\common\mul_impl.hpp
; Line 22
	mov	rax, QWORD PTR [rcx+8]
; File C:\Users\artem.zyktin\projects\tenvex\src\tenvex\expressions\common\add_impl.hpp
; Line 22
	mov	r8, QWORD PTR [rcx+16]
; File C:\Users\artem.zyktin\projects\tenvex\src\tenvex\expressions\common\normalize3_impl.hpp
; Line 19
	mov	rcx, QWORD PTR [rcx]
; File C:\Users\artem.zyktin\projects\tenvex\src\tenvex\expressions\core\core_sse.h
; Line 114
	movups	xmm5, XMMWORD PTR [rax+16]
	mulps	xmm5, XMMWORD PTR [rax]
; File C:\Users\artem.zyktin\projects\tenvex\src\tenvex\expressions\common\add_impl.hpp
; Line 22
	mov	rax, QWORD PTR [rcx+16]
; File C:\Users\artem.zyktin\projects\tenvex\src\tenvex\expressions\core\core_sse.h
; Line 101
	movups	xmm2, XMMWORD PTR [r8+16]
	mulps	xmm2, XMMWORD PTR [r8]
	movups	xmm4, XMMWORD PTR [rax+16]
; Line 115
	movaps	xmm0, xmm5
; Line 101
	mulps	xmm4, XMMWORD PTR [rax]
; Line 117
	movaps	xmm1, xmm5
; File C:\Users\artem.zyktin\projects\tenvex\src\tenvex\expressions\common\add_impl.hpp
; Line 22
	mov	rax, rdx
; File C:\Users\artem.zyktin\projects\tenvex\src\tenvex\expressions\core\core_sse.h
; Line 117
	movhlps	xmm1, xmm5
	shufps	xmm0, xmm5, 85				; 00000055H
	addss	xmm5, xmm0
; Line 89
	addps	xmm4, XMMWORD PTR [rcx]
; Line 118
	addss	xmm5, xmm1
; Line 114
	movaps	xmm3, xmm4
	mulps	xmm3, xmm4
; Line 119
	shufps	xmm5, xmm5, 0
; Line 115
	movaps	xmm0, xmm3
; Line 117
	movaps	xmm1, xmm3
	movhlps	xmm1, xmm3
	shufps	xmm0, xmm3, 85				; 00000055H
	addss	xmm3, xmm0
; Line 118
	addss	xmm3, xmm1
; Line 157
	movaps	xmm1, xmm4
; Line 119
	shufps	xmm3, xmm3, 0
; Line 133
	sqrtps	xmm0, xmm3
; Line 157
	divps	xmm1, xmm0
	blendps	xmm1, xmm4, 8
; Line 101
	mulps	xmm1, xmm5
; Line 89
	addps	xmm1, xmm2
; File C:\Users\artem.zyktin\projects\tenvex\src\tenvex\expressions\common\add_impl.hpp
; Line 22
	movups	XMMWORD PTR [rdx], xmm1
; Line 23
	ret	0
?eval@?$Add@U?$Mul@U?$Normalize3@U?$Add@Uvec4@tnvx@@U?$Mul@Uvec4@tnvx@@UScalar@2@@2@@tnvx@@@tnvx@@U?$Dot3@Uvec4@tnvx@@U12@@2@@tnvx@@U?$Mul@Uvec4@tnvx@@UScalar@2@@2@@tnvx@@QEBA?AT__m128@@XZ ENDP ; tnvx::Add<tnvx::Mul<tnvx::Normalize3<tnvx::Add<tnvx::vec4,tnvx::Mul<tnvx::vec4,tnvx::Scalar> > >,tnvx::Dot3<tnvx::vec4,tnvx::vec4> >,tnvx::Mul<tnvx::vec4,tnvx::Scalar> >::eval
_TEXT	ENDS
; Function compile flags: /Ogtpy
;	COMDAT cg_compound_manual
_TEXT	SEGMENT
va$ = 80
vb$ = 88
vc$ = 96
out$ = 104
n$ = 112
cg_compound_manual PROC					; COMDAT
; File C:\Users\artem.zyktin\projects\tenvex\src\codegen\cg_compound.cpp
; Line 25
$LN61:
	sub	rsp, 72					; 00000048H
	mov	r11, QWORD PTR n$[rsp]
; Line 28
	xor	r10d, r10d
	movaps	XMMWORD PTR [rsp+48], xmm6
	movaps	XMMWORD PTR [rsp+16], xmm8
	movdqa	xmm8, XMMWORD PTR __xmm@40400000404000004040000040400000
	movaps	XMMWORD PTR [rsp], xmm9
	movdqa	xmm9, XMMWORD PTR __xmm@40000000400000004000000040000000
	cmp	r11, 4
	jb	$LC51@cg_compoun
	mov	QWORD PTR [rsp+80], rbx
	xor	ebx, ebx
	mov	QWORD PTR [rsp+64], rdi
	lea	rdi, QWORD PTR [r11-3]
	movaps	XMMWORD PTR [rsp+32], xmm7
	npad	3
$LL52@cg_compoun:
; Line 31
	mov	rax, r10
; File C:\Users\artem.zyktin\projects\tenvex\src\tenvex\expressions\core\core_sse.h
; Line 101
	movaps	xmm7, xmm9
; File C:\Users\artem.zyktin\projects\tenvex\src\codegen\cg_compound.cpp
; Line 31
	add	rax, rax
; File C:\Users\artem.zyktin\projects\tenvex\src\tenvex\expressions\vec\vec4_impl.hpp
; Line 17
	movups	xmm3, XMMWORD PTR [rdx+rax*8]
	movups	xmm6, XMMWORD PTR [r8+rax*8]
; File C:\Users\artem.zyktin\projects\tenvex\src\tenvex\expressions\core\core_sse.h
; Line 101
	mulps	xmm7, xmm3
; Line 114
	movaps	xmm2, xmm6
	mulps	xmm2, xmm3
; Line 101
	movaps	xmm3, xmm8
	mulps	xmm3, xmm6
; Line 89
	addps	xmm7, XMMWORD PTR [rcx+rax*8]
; Line 116
	movaps	xmm4, xmm2
; Line 114
	movaps	xmm1, xmm7
	mulps	xmm1, xmm7
; Line 116
	movaps	xmm5, xmm1
	movaps	xmm0, xmm1
	shufps	xmm0, xmm1, 85				; 00000055H
	addss	xmm5, xmm0
; Line 117
	movhlps	xmm1, xmm1
; Line 115
	movaps	xmm0, xmm2
	shufps	xmm0, xmm2, 85				; 00000055H
; Line 116
	addss	xmm4, xmm0
; Line 117
	movhlps	xmm2, xmm2
; Line 118
	addss	xmm5, xmm1
; Line 157
	movaps	xmm1, xmm7
; Line 118
	addss	xmm4, xmm2
; Line 119
	shufps	xmm5, xmm5, 0
; Line 133
	sqrtps	xmm0, xmm5
; Line 101
	movaps	xmm5, xmm9
; Line 119
	shufps	xmm4, xmm4, 0
; Line 157
	divps	xmm1, xmm0
	blendps	xmm1, xmm7, 8
; Line 101
	mulps	xmm1, xmm4
	movaps	xmm7, xmm9
; Line 89
	addps	xmm1, xmm3
; File C:\Users\artem.zyktin\projects\tenvex\src\codegen\cg_compound.cpp
; Line 36
	movups	XMMWORD PTR [r9+rax*8], xmm1
; File C:\Users\artem.zyktin\projects\tenvex\src\tenvex\expressions\vec\vec4_impl.hpp
; Line 17
	movups	xmm3, XMMWORD PTR [rdx+rax*8+16]
	movups	xmm6, XMMWORD PTR [r8+rax*8+16]
; File C:\Users\artem.zyktin\projects\tenvex\src\tenvex\expressions\core\core_sse.h
; Line 101
	mulps	xmm5, xmm3
; Line 114
	movaps	xmm2, xmm6
	mulps	xmm2, xmm3
; Line 89
	addps	xmm5, XMMWORD PTR [rcx+rax*8+16]
; Line 116
	movaps	xmm3, xmm2
; Line 114
	movaps	xmm1, xmm5
	mulps	xmm1, xmm5
; Line 116
	movaps	xmm4, xmm1
	movaps	xmm0, xmm1
	shufps	xmm0, xmm1, 85				; 00000055H
	addss	xmm4, xmm0
; Line 117
	movhlps	xmm1, xmm1
; Line 115
	movaps	xmm0, xmm2
	shufps	xmm0, xmm2, 85				; 00000055H
; Line 116
	addss	xmm3, xmm0
; Line 117
	movhlps	xmm2, xmm2
; Line 118
	addss	xmm4, xmm1
; Line 157
	movaps	xmm1, xmm5
; Line 118
	addss	xmm3, xmm2
; Line 119
	shufps	xmm4, xmm4, 0
; Line 133
	sqrtps	xmm0, xmm4
; Line 119
	shufps	xmm3, xmm3, 0
; Line 157
	divps	xmm1, xmm0
; Line 101
	movaps	xmm0, xmm8
; Line 157
	blendps	xmm1, xmm5, 8
; Line 101
	mulps	xmm1, xmm3
	mulps	xmm0, xmm6
; Line 89
	addps	xmm1, xmm0
; File C:\Users\artem.zyktin\projects\tenvex\src\codegen\cg_compound.cpp
; Line 36
	movups	XMMWORD PTR [r9+rax*8+16], xmm1
; File C:\Users\artem.zyktin\projects\tenvex\src\tenvex\expressions\vec\vec4_impl.hpp
; Line 17
	movups	xmm3, XMMWORD PTR [rbx+rdx+32]
	movups	xmm6, XMMWORD PTR [rbx+r8+32]
; File C:\Users\artem.zyktin\projects\tenvex\src\tenvex\expressions\core\core_sse.h
; Line 101
	mulps	xmm7, xmm3
; Line 114
	movaps	xmm2, xmm6
	mulps	xmm2, xmm3
; Line 89
	addps	xmm7, XMMWORD PTR [rbx+rcx+32]
; Line 114
	movaps	xmm1, xmm7
	mulps	xmm1, xmm7
; Line 115
	movaps	xmm0, xmm1
; Line 116
	movaps	xmm5, xmm1
	shufps	xmm0, xmm1, 85				; 00000055H
	addss	xmm5, xmm0
; Line 117
	movhlps	xmm1, xmm1
; Line 118
	addss	xmm5, xmm1
; Line 116
	movaps	xmm4, xmm2
; Line 119
	shufps	xmm5, xmm5, 0
; Line 115
	movaps	xmm0, xmm2
; Line 157
	movaps	xmm1, xmm7
; Line 115
	shufps	xmm0, xmm2, 85				; 00000055H
; Line 101
	movaps	xmm3, xmm8
; Line 116
	addss	xmm4, xmm0
; Line 101
	mulps	xmm3, xmm6
; File C:\Users\artem.zyktin\projects\tenvex\src\codegen\cg_compound.cpp
; Line 36
	add	r10, 4
; File C:\Users\artem.zyktin\projects\tenvex\src\tenvex\expressions\core\core_sse.h
; Line 133
	sqrtps	xmm0, xmm5
; Line 101
	movaps	xmm5, xmm9
; Line 117
	movhlps	xmm2, xmm2
; Line 157
	divps	xmm1, xmm0
; Line 118
	addss	xmm4, xmm2
; Line 157
	blendps	xmm1, xmm7, 8
; Line 119
	shufps	xmm4, xmm4, 0
; Line 101
	mulps	xmm1, xmm4
; Line 89
	addps	xmm1, xmm3
; File C:\Users\artem.zyktin\projects\tenvex\src\codegen\cg_compound.cpp
; Line 36
	movups	XMMWORD PTR [rbx+r9+32], xmm1
; File C:\Users\artem.zyktin\projects\tenvex\src\tenvex\expressions\vec\vec4_impl.hpp
; Line 17
	movups	xmm3, XMMWORD PTR [rbx+rdx+48]
	movups	xmm6, XMMWORD PTR [rbx+r8+48]
; File C:\Users\artem.zyktin\projects\tenvex\src\tenvex\expressions\core\core_sse.h
; Line 101
	mulps	xmm5, xmm3
; Line 114
	movaps	xmm2, xmm6
	mulps	xmm2, xmm3
; Line 89
	addps	xmm5, XMMWORD PTR [rbx+rcx+48]
; Line 116
	movaps	xmm3, xmm2
; Line 114
	movaps	xmm1, xmm5
	mulps	xmm1, xmm5
; Line 116
	movaps	xmm4, xmm1
	movaps	xmm0, xmm1
	shufps	xmm0, xmm1, 85				; 00000055H
	addss	xmm4, xmm0
; Line 117
	movhlps	xmm1, xmm1
; Line 115
	movaps	xmm0, xmm2
	shufps	xmm0, xmm2, 85				; 00000055H
; Line 116
	addss	xmm3, xmm0
; Line 117
	movhlps	xmm2, xmm2
; Line 118
	addss	xmm4, xmm1
; Line 157
	movaps	xmm1, xmm5
; Line 118
	addss	xmm3, xmm2
; Line 119
	shufps	xmm4, xmm4, 0
; Line 133
	sqrtps	xmm0, xmm4
; Line 119
	shufps	xmm3, xmm3, 0
; Line 157
	divps	xmm1, xmm0
; Line 101
	movaps	xmm0, xmm8
; Line 157
	blendps	xmm1, xmm5, 8
; Line 101
	mulps	xmm1, xmm3
	mulps	xmm0, xmm6
; Line 89
	addps	xmm1, xmm0
; File C:\Users\artem.zyktin\projects\tenvex\src\codegen\cg_compound.cpp
; Line 36
	movups	XMMWORD PTR [rbx+r9+48], xmm1
	add	rbx, 64					; 00000040H
	cmp	r10, rdi
	jb	$LL52@cg_compoun
	movaps	xmm7, XMMWORD PTR [rsp+32]
	mov	rdi, QWORD PTR [rsp+64]
	mov	rbx, QWORD PTR [rsp+80]
$LC51@cg_compoun:
; Line 28
	cmp	r10, r11
	jae	$LN50@cg_compoun
$LC4@cg_compoun:
; Line 31
	mov	rax, r10
; File C:\Users\artem.zyktin\projects\tenvex\src\tenvex\expressions\core\core_sse.h
; Line 101
	movaps	xmm5, xmm9
; File C:\Users\artem.zyktin\projects\tenvex\src\codegen\cg_compound.cpp
; Line 31
	add	rax, rax
	inc	r10
; File C:\Users\artem.zyktin\projects\tenvex\src\tenvex\expressions\vec\vec4_impl.hpp
; Line 17
	movups	xmm3, XMMWORD PTR [rdx+rax*8]
	movups	xmm6, XMMWORD PTR [r8+rax*8]
; File C:\Users\artem.zyktin\projects\tenvex\src\tenvex\expressions\core\core_sse.h
; Line 101
	mulps	xmm5, xmm3
; Line 114
	movaps	xmm2, xmm6
	mulps	xmm2, xmm3
; Line 89
	addps	xmm5, XMMWORD PTR [rcx+rax*8]
; Line 116
	movaps	xmm3, xmm2
; Line 114
	movaps	xmm1, xmm5
	mulps	xmm1, xmm5
; Line 116
	movaps	xmm4, xmm1
	movaps	xmm0, xmm1
	shufps	xmm0, xmm1, 85				; 00000055H
; Line 117
	movhlps	xmm1, xmm1
	addss	xmm4, xmm0
; Line 115
	movaps	xmm0, xmm2
	shufps	xmm0, xmm2, 85				; 00000055H
; Line 117
	movhlps	xmm2, xmm2
	addss	xmm3, xmm0
; Line 118
	addss	xmm4, xmm1
; Line 157
	movaps	xmm1, xmm5
; Line 118
	addss	xmm3, xmm2
; Line 119
	shufps	xmm4, xmm4, 0
; Line 133
	sqrtps	xmm0, xmm4
; Line 119
	shufps	xmm3, xmm3, 0
; Line 157
	divps	xmm1, xmm0
; Line 101
	movaps	xmm0, xmm8
	mulps	xmm0, xmm6
; Line 157
	blendps	xmm1, xmm5, 8
; Line 101
	mulps	xmm1, xmm3
; Line 89
	addps	xmm1, xmm0
; File C:\Users\artem.zyktin\projects\tenvex\src\codegen\cg_compound.cpp
; Line 36
	movups	XMMWORD PTR [r9+rax*8], xmm1
	cmp	r10, r11
	jb	$LC4@cg_compoun
$LN50@cg_compoun:
; Line 38
	movaps	xmm6, XMMWORD PTR [rsp+48]
	movaps	xmm8, XMMWORD PTR [rsp+16]
	movaps	xmm9, XMMWORD PTR [rsp]
	add	rsp, 72					; 00000048H
	ret	0
cg_compound_manual ENDP
_TEXT	ENDS
; Function compile flags: /Ogtpy
;	COMDAT ?dp3_raw@@YA?AT__m128@@T1@0@Z
_TEXT	SEGMENT
a$ = 8
b$ = 16
?dp3_raw@@YA?AT__m128@@T1@0@Z PROC			; dp3_raw, COMDAT
; File C:\Users\artem.zyktin\projects\tenvex\src\codegen\cg_compound.cpp
; Line 44
	movups	xmm0, XMMWORD PTR [rcx]
	dpps	xmm0, XMMWORD PTR [rdx], 127		; 0000007fH
; Line 45
	ret	0
?dp3_raw@@YA?AT__m128@@T1@0@Z ENDP			; dp3_raw
_TEXT	ENDS
; Function compile flags: /Ogtpy
;	COMDAT ?norm3_raw@@YA?AT__m128@@T1@@Z
_TEXT	SEGMENT
v$ = 8
?norm3_raw@@YA?AT__m128@@T1@@Z PROC			; norm3_raw, COMDAT
; File C:\Users\artem.zyktin\projects\tenvex\src\codegen\cg_compound.cpp
; Line 50
	movups	xmm2, XMMWORD PTR [rcx]
; Line 44
	movaps	xmm0, xmm2
	dpps	xmm0, xmm2, 127				; 0000007fH
; Line 49
	sqrtps	xmm1, xmm0
; Line 50
	movaps	xmm0, xmm2
	divps	xmm0, xmm1
	blendps	xmm0, xmm2, 8
; Line 51
	ret	0
?norm3_raw@@YA?AT__m128@@T1@@Z ENDP			; norm3_raw
_TEXT	ENDS
; Function compile flags: /Ogtpy
;	COMDAT cg_compound_intrin
_TEXT	SEGMENT
va$ = 32
vb$ = 40
vc$ = 48
out$ = 56
n$ = 64
cg_compound_intrin PROC					; COMDAT
; File C:\Users\artem.zyktin\projects\tenvex\src\codegen\cg_compound.cpp
; Line 55
$LN36:
	sub	rsp, 24
	mov	r11, QWORD PTR n$[rsp]
; Line 56
	xor	r10d, r10d
	movdqa	xmm5, XMMWORD PTR __xmm@40400000404000004040000040400000
	movaps	XMMWORD PTR [rsp], xmm6
	movdqa	xmm6, XMMWORD PTR __xmm@40000000400000004000000040000000
	cmp	r11, 4
	jb	$LC26@cg_compoun
	mov	QWORD PTR [rsp+32], rbx
	xor	ebx, ebx
	mov	QWORD PTR [rsp+16], rdi
	lea	rdi, QWORD PTR [r11-3]
	npad	6
$LL27@cg_compoun:
; Line 58
	mov	rax, r10
; Line 59
	movaps	xmm3, xmm6
	add	rax, rax
; Line 61
	movaps	xmm2, xmm5
	add	r10, 4
; File C:\Users\artem.zyktin\projects\tenvex\src\tenvex\expressions\vec\vec4_impl.hpp
; Line 17
	movups	xmm0, XMMWORD PTR [r8+rax*8]
	movups	xmm4, XMMWORD PTR [rdx+rax*8]
; File C:\Users\artem.zyktin\projects\tenvex\src\codegen\cg_compound.cpp
; Line 61
	mulps	xmm2, xmm0
	mulps	xmm3, xmm4
; Line 44
	dpps	xmm4, xmm0, 127				; 0000007fH
; Line 59
	addps	xmm3, XMMWORD PTR [rcx+rax*8]
; Line 44
	movaps	xmm0, xmm3
; Line 50
	movaps	xmm1, xmm3
; Line 44
	dpps	xmm0, xmm3, 127				; 0000007fH
; Line 49
	sqrtps	xmm0, xmm0
; Line 50
	divps	xmm1, xmm0
	blendps	xmm1, xmm3, 8
; Line 61
	mulps	xmm1, xmm4
	addps	xmm1, xmm2
	movups	XMMWORD PTR [r9+rax*8], xmm1
	movaps	xmm1, xmm6
; File C:\Users\artem.zyktin\projects\tenvex\src\tenvex\expressions\vec\vec4_impl.hpp
; Line 17
	movups	xmm3, XMMWORD PTR [rdx+rax*8+16]
	movups	xmm4, XMMWORD PTR [r8+rax*8+16]
; File C:\Users\artem.zyktin\projects\tenvex\src\codegen\cg_compound.cpp
; Line 59
	mulps	xmm1, xmm3
; Line 44
	dpps	xmm3, xmm4, 127				; 0000007fH
; Line 59
	addps	xmm1, XMMWORD PTR [rcx+rax*8+16]
; Line 44
	movaps	xmm0, xmm1
; Line 50
	movaps	xmm2, xmm1
; Line 44
	dpps	xmm0, xmm1, 127				; 0000007fH
; Line 49
	sqrtps	xmm0, xmm0
; Line 50
	divps	xmm2, xmm0
; Line 61
	movaps	xmm0, xmm5
; Line 50
	blendps	xmm2, xmm1, 8
; Line 61
	mulps	xmm2, xmm3
	movaps	xmm3, xmm6
	mulps	xmm0, xmm4
	addps	xmm2, xmm0
	movups	XMMWORD PTR [r9+rax*8+16], xmm2
	movaps	xmm2, xmm5
; File C:\Users\artem.zyktin\projects\tenvex\src\tenvex\expressions\vec\vec4_impl.hpp
; Line 17
	movups	xmm0, XMMWORD PTR [rbx+r8+32]
	movups	xmm4, XMMWORD PTR [rbx+rdx+32]
; File C:\Users\artem.zyktin\projects\tenvex\src\codegen\cg_compound.cpp
; Line 61
	mulps	xmm2, xmm0
	mulps	xmm3, xmm4
; Line 44
	dpps	xmm4, xmm0, 127				; 0000007fH
; Line 59
	addps	xmm3, XMMWORD PTR [rbx+rcx+32]
; Line 44
	movaps	xmm0, xmm3
; Line 50
	movaps	xmm1, xmm3
; Line 44
	dpps	xmm0, xmm3, 127				; 0000007fH
; Line 49
	sqrtps	xmm0, xmm0
; Line 50
	divps	xmm1, xmm0
	blendps	xmm1, xmm3, 8
; Line 61
	mulps	xmm1, xmm4
	addps	xmm1, xmm2
	movups	XMMWORD PTR [rbx+r9+32], xmm1
	movaps	xmm1, xmm6
; File C:\Users\artem.zyktin\projects\tenvex\src\tenvex\expressions\vec\vec4_impl.hpp
; Line 17
	movups	xmm3, XMMWORD PTR [rbx+rdx+48]
	movups	xmm4, XMMWORD PTR [rbx+r8+48]
; File C:\Users\artem.zyktin\projects\tenvex\src\codegen\cg_compound.cpp
; Line 59
	mulps	xmm1, xmm3
; Line 44
	dpps	xmm3, xmm4, 127				; 0000007fH
; Line 59
	addps	xmm1, XMMWORD PTR [rbx+rcx+48]
; Line 44
	movaps	xmm0, xmm1
; Line 50
	movaps	xmm2, xmm1
; Line 44
	dpps	xmm0, xmm1, 127				; 0000007fH
; Line 49
	sqrtps	xmm0, xmm0
; Line 50
	divps	xmm2, xmm0
; Line 61
	movaps	xmm0, xmm5
; Line 50
	blendps	xmm2, xmm1, 8
; Line 61
	mulps	xmm2, xmm3
	mulps	xmm0, xmm4
	addps	xmm2, xmm0
	movups	XMMWORD PTR [rbx+r9+48], xmm2
	add	rbx, 64					; 00000040H
	cmp	r10, rdi
	jb	$LL27@cg_compoun
	mov	rdi, QWORD PTR [rsp+16]
	mov	rbx, QWORD PTR [rsp+32]
$LC26@cg_compoun:
; Line 56
	cmp	r10, r11
	jae	SHORT $LN25@cg_compoun
$LC4@cg_compoun:
; Line 58
	mov	rax, r10
; Line 59
	movaps	xmm1, xmm6
	add	rax, rax
	inc	r10
; File C:\Users\artem.zyktin\projects\tenvex\src\tenvex\expressions\vec\vec4_impl.hpp
; Line 17
	movups	xmm3, XMMWORD PTR [rdx+rax*8]
	movups	xmm4, XMMWORD PTR [r8+rax*8]
; File C:\Users\artem.zyktin\projects\tenvex\src\codegen\cg_compound.cpp
; Line 59
	mulps	xmm1, xmm3
; Line 44
	dpps	xmm3, xmm4, 127				; 0000007fH
; Line 59
	addps	xmm1, XMMWORD PTR [rcx+rax*8]
; Line 44
	movaps	xmm0, xmm1
; Line 50
	movaps	xmm2, xmm1
; Line 44
	dpps	xmm0, xmm1, 127				; 0000007fH
; Line 49
	sqrtps	xmm0, xmm0
; Line 50
	divps	xmm2, xmm0
; Line 61
	movaps	xmm0, xmm5
	mulps	xmm0, xmm4
; Line 50
	blendps	xmm2, xmm1, 8
; Line 61
	mulps	xmm2, xmm3
	addps	xmm2, xmm0
	movups	XMMWORD PTR [r9+rax*8], xmm2
	cmp	r10, r11
	jb	SHORT $LC4@cg_compoun
$LN25@cg_compoun:
; Line 63
	movaps	xmm6, XMMWORD PTR [rsp]
	add	rsp, 24
	ret	0
cg_compound_intrin ENDP
_TEXT	ENDS
END
