; Microsoft (R) C/C++ Optimizing Compiler Version 19.51.36248 for x64
; cl /nologo /c /O2 /std:c++20 /EHsc /W3 /Isrc\tenvex /FA cg_elementwise.cpp
; Listing generated by Microsoft (R) Optimizing Compiler Version 19.51.36248.0 

include listing.inc

INCLUDELIB LIBCMT
INCLUDELIB OLDNAMES

PUBLIC	?set@detail@tnvx@@YA?AT__m128@@MMMM@Z		; tnvx::detail::set
PUBLIC	?add@detail@tnvx@@YA?AT__m128@@T3@0@Z		; tnvx::detail::add
PUBLIC	?max@detail@tnvx@@YA?AT__m128@@T3@0@Z		; tnvx::detail::max
PUBLIC	?min@detail@tnvx@@YA?AT__m128@@T3@0@Z		; tnvx::detail::min
PUBLIC	?with_w@detail@tnvx@@YA?AT__m128@@T3@0@Z	; tnvx::detail::with_w
PUBLIC	??0vec4@tnvx@@QEAA@MMMM@Z			; tnvx::vec4::vec4
PUBLIC	?eval@vec4@tnvx@@QEBA?AT__m128@@XZ		; tnvx::vec4::eval
PUBLIC	cg_aabb
PUBLIC	??$min@Uvec4@tnvx@@U12@@tnvx@@YA?AU?$Min@Uvec4@tnvx@@U12@@0@AEBUvec4@0@0@Z ; tnvx::min<tnvx::vec4,tnvx::vec4>
PUBLIC	??0?$Min@Uvec4@tnvx@@U12@@tnvx@@QEAA@AEIBUvec4@1@0@Z ; tnvx::Min<tnvx::vec4,tnvx::vec4>::Min<tnvx::vec4,tnvx::vec4>
PUBLIC	?eval@?$Min@Uvec4@tnvx@@U12@@tnvx@@QEBA?AT__m128@@XZ ; tnvx::Min<tnvx::vec4,tnvx::vec4>::eval
PUBLIC	??$?0U?$Min@Uvec4@tnvx@@U12@@tnvx@@@vec4@tnvx@@QEAA@AEBU?$Min@Uvec4@tnvx@@U12@@1@@Z ; tnvx::vec4::vec4<tnvx::Min<tnvx::vec4,tnvx::vec4> >
PUBLIC	??$max@Uvec4@tnvx@@U12@@tnvx@@YA?AU?$Max@Uvec4@tnvx@@U12@@0@AEBUvec4@0@0@Z ; tnvx::max<tnvx::vec4,tnvx::vec4>
PUBLIC	??0?$Max@Uvec4@tnvx@@U12@@tnvx@@QEAA@AEIBUvec4@1@0@Z ; tnvx::Max<tnvx::vec4,tnvx::vec4>::Max<tnvx::vec4,tnvx::vec4>
PUBLIC	?eval@?$Max@Uvec4@tnvx@@U12@@tnvx@@QEBA?AT__m128@@XZ ; tnvx::Max<tnvx::vec4,tnvx::vec4>::eval
PUBLIC	??$?0U?$Max@Uvec4@tnvx@@U12@@tnvx@@@vec4@tnvx@@QEAA@AEBU?$Max@Uvec4@tnvx@@U12@@1@@Z ; tnvx::vec4::vec4<tnvx::Max<tnvx::vec4,tnvx::vec4> >
PUBLIC	cg_saturate
PUBLIC	??$saturate@Uvec4@tnvx@@@tnvx@@YA?AUvec4@0@AEBU10@@Z ; tnvx::saturate<tnvx::vec4>
PUBLIC	cg_with_w_expr
PUBLIC	??$?HUvec4@tnvx@@U01@@tnvx@@YA?AU?$Add@Uvec4@tnvx@@U12@@0@AEBUvec4@0@0@Z ; tnvx::operator+<tnvx::vec4,tnvx::vec4>
PUBLIC	??0?$Add@Uvec4@tnvx@@U12@@tnvx@@QEAA@AEIBUvec4@1@0@Z ; tnvx::Add<tnvx::vec4,tnvx::vec4>::Add<tnvx::vec4,tnvx::vec4>
PUBLIC	?eval@?$Add@Uvec4@tnvx@@U12@@tnvx@@QEBA?AT__m128@@XZ ; tnvx::Add<tnvx::vec4,tnvx::vec4>::eval
PUBLIC	??$with_w@U?$Add@Uvec4@tnvx@@U12@@tnvx@@Uvec4@2@@tnvx@@YA?AU?$WithW@U?$Add@Uvec4@tnvx@@U12@@tnvx@@Uvec4@2@@0@AEBU?$Add@Uvec4@tnvx@@U12@@0@AEBUvec4@0@@Z ; tnvx::with_w<tnvx::Add<tnvx::vec4,tnvx::vec4>,tnvx::vec4>
PUBLIC	??0?$WithW@U?$Add@Uvec4@tnvx@@U12@@tnvx@@Uvec4@2@@tnvx@@QEAA@AEIBU?$Add@Uvec4@tnvx@@U12@@1@AEIBUvec4@1@@Z ; tnvx::WithW<tnvx::Add<tnvx::vec4,tnvx::vec4>,tnvx::vec4>::WithW<tnvx::Add<tnvx::vec4,tnvx::vec4>,tnvx::vec4>
PUBLIC	?eval@?$WithW@U?$Add@Uvec4@tnvx@@U12@@tnvx@@Uvec4@2@@tnvx@@QEBA?AT__m128@@XZ ; tnvx::WithW<tnvx::Add<tnvx::vec4,tnvx::vec4>,tnvx::vec4>::eval
PUBLIC	??$clamp@Uvec4@tnvx@@U12@U12@@tnvx@@YA?AUvec4@0@AEBU10@00@Z ; tnvx::clamp<tnvx::vec4,tnvx::vec4,tnvx::vec4>
PUBLIC	??$min@U?$Max@Uvec4@tnvx@@U12@@tnvx@@Uvec4@2@@tnvx@@YA?AU?$Min@U?$Max@Uvec4@tnvx@@U12@@tnvx@@Uvec4@2@@0@AEBU?$Max@Uvec4@tnvx@@U12@@0@AEBUvec4@0@@Z ; tnvx::min<tnvx::Max<tnvx::vec4,tnvx::vec4>,tnvx::vec4>
PUBLIC	??0?$Min@U?$Max@Uvec4@tnvx@@U12@@tnvx@@Uvec4@2@@tnvx@@QEAA@AEIBU?$Max@Uvec4@tnvx@@U12@@1@AEIBUvec4@1@@Z ; tnvx::Min<tnvx::Max<tnvx::vec4,tnvx::vec4>,tnvx::vec4>::Min<tnvx::Max<tnvx::vec4,tnvx::vec4>,tnvx::vec4>
PUBLIC	?eval@?$Min@U?$Max@Uvec4@tnvx@@U12@@tnvx@@Uvec4@2@@tnvx@@QEBA?AT__m128@@XZ ; tnvx::Min<tnvx::Max<tnvx::vec4,tnvx::vec4>,tnvx::vec4>::eval
PUBLIC	??$?0U?$Min@U?$Max@Uvec4@tnvx@@U12@@tnvx@@Uvec4@2@@tnvx@@@vec4@tnvx@@QEAA@AEBU?$Min@U?$Max@Uvec4@tnvx@@U12@@tnvx@@Uvec4@2@@1@@Z ; tnvx::vec4::vec4<tnvx::Min<tnvx::Max<tnvx::vec4,tnvx::vec4>,tnvx::vec4> >
PUBLIC	__xmm@3f8000003f8000003f8000003f800000
EXTRN	_fltused:DWORD
;	COMDAT __xmm@3f8000003f8000003f8000003f800000
CONST	SEGMENT
__xmm@3f8000003f8000003f8000003f800000 DB 00H, 00H, 080H, '?', 00H, 00H, 080H
	DB	'?', 00H, 00H, 080H, '?', 00H, 00H, 080H, '?'
CONST	ENDS
; Function compile flags: /Ogtpy
;	COMDAT ?set@detail@tnvx@@YA?AT__m128@@MMMM@Z
_TEXT	SEGMENT
a$ = 8
b$ = 16
c$ = 24
d$ = 32
?set@detail@tnvx@@YA?AT__m128@@MMMM@Z PROC		; tnvx::detail::set, COMDAT
; File C:\Users\artem.zyktin\projects\tenvex\src\tenvex\expressions\core\core_sse.h
; Line 21
	unpcklps xmm2, xmm3
	unpcklps xmm0, xmm1
	movlhps	xmm0, xmm2
; Line 22
	ret	0
?set@detail@tnvx@@YA?AT__m128@@MMMM@Z ENDP		; tnvx::detail::set
_TEXT	ENDS
; Function compile flags: /Ogtpy
;	COMDAT ?add@detail@tnvx@@YA?AT__m128@@T3@0@Z
_TEXT	SEGMENT
l$ = 8
r$ = 16
?add@detail@tnvx@@YA?AT__m128@@T3@0@Z PROC		; tnvx::detail::add, COMDAT
; File C:\Users\artem.zyktin\projects\tenvex\src\tenvex\expressions\core\core_sse.h
; Line 89
	movups	xmm0, XMMWORD PTR [rcx]
	addps	xmm0, XMMWORD PTR [rdx]
; Line 90
	ret	0
?add@detail@tnvx@@YA?AT__m128@@T3@0@Z ENDP		; tnvx::detail::add
_TEXT	ENDS
; Function compile flags: /Ogtpy
;	COMDAT ?max@detail@tnvx@@YA?AT__m128@@T3@0@Z
_TEXT	SEGMENT
l$ = 8
r$ = 16
?max@detail@tnvx@@YA?AT__m128@@T3@0@Z PROC		; tnvx::detail::max, COMDAT
; File C:\Users\artem.zyktin\projects\tenvex\src\tenvex\expressions\core\core_sse.h
; Line 175
	movups	xmm0, XMMWORD PTR [rcx]
	maxps	xmm0, XMMWORD PTR [rdx]
; Line 176
	ret	0
?max@detail@tnvx@@YA?AT__m128@@T3@0@Z ENDP		; tnvx::detail::max
_TEXT	ENDS
; Function compile flags: /Ogtpy
;	COMDAT ?min@detail@tnvx@@YA?AT__m128@@T3@0@Z
_TEXT	SEGMENT
l$ = 8
r$ = 16
?min@detail@tnvx@@YA?AT__m128@@T3@0@Z PROC		; tnvx::detail::min, COMDAT
; File C:\Users\artem.zyktin\projects\tenvex\src\tenvex\expressions\core\core_sse.h
; Line 181
	movups	xmm0, XMMWORD PTR [rcx]
	minps	xmm0, XMMWORD PTR [rdx]
; Line 182
	ret	0
?min@detail@tnvx@@YA?AT__m128@@T3@0@Z ENDP		; tnvx::detail::min
_TEXT	ENDS
; Function compile flags: /Ogtpy
;	COMDAT ?with_w@detail@tnvx@@YA?AT__m128@@T3@0@Z
_TEXT	SEGMENT
xyz_source$ = 8
w_source$ = 16
?with_w@detail@tnvx@@YA?AT__m128@@T3@0@Z PROC		; tnvx::detail::with_w, COMDAT
; File C:\Users\artem.zyktin\projects\tenvex\src\tenvex\expressions\core\core_sse.h
; Line 230
	movups	xmm0, XMMWORD PTR [rcx]
	blendps	xmm0, XMMWORD PTR [rdx], 8
; Line 231
	ret	0
?with_w@detail@tnvx@@YA?AT__m128@@T3@0@Z ENDP		; tnvx::detail::with_w
_TEXT	ENDS
; Function compile flags: /Ogtpy
;	COMDAT ??0vec4@tnvx@@QEAA@MMMM@Z
_TEXT	SEGMENT
this$ = 8
x$ = 16
y$ = 24
z$ = 32
w$ = 40
??0vec4@tnvx@@QEAA@MMMM@Z PROC				; tnvx::vec4::vec4, COMDAT
; File C:\Users\artem.zyktin\projects\tenvex\src\tenvex\expressions\vec\vec4_impl.hpp
; File C:\Users\artem.zyktin\projects\tenvex\src\tenvex\expressions\core\core_sse.h
; Line 21
	movss	xmm4, DWORD PTR w$[rsp]
; File C:\Users\artem.zyktin\projects\tenvex\src\tenvex\expressions\vec\vec4_impl.hpp
; Line 12
	mov	rax, rcx
; File C:\Users\artem.zyktin\projects\tenvex\src\tenvex\expressions\core\core_sse.h
; Line 21
	unpcklps xmm3, xmm4
	unpcklps xmm1, xmm2
	movlhps	xmm1, xmm3
; File C:\Users\artem.zyktin\projects\tenvex\src\tenvex\expressions\vec\vec4_impl.hpp
; Line 10
	movups	XMMWORD PTR [rcx], xmm1
; Line 12
	ret	0
??0vec4@tnvx@@QEAA@MMMM@Z ENDP				; tnvx::vec4::vec4
_TEXT	ENDS
; Function compile flags: /Ogtpy
;	COMDAT ?eval@vec4@tnvx@@QEBA?AT__m128@@XZ
_TEXT	SEGMENT
this$ = 8
__$ReturnUdt$ = 16
?eval@vec4@tnvx@@QEBA?AT__m128@@XZ PROC			; tnvx::vec4::eval, COMDAT
; File C:\Users\artem.zyktin\projects\tenvex\src\tenvex\expressions\vec\vec4_impl.hpp
; Line 17
	movups	xmm0, XMMWORD PTR [rcx]
	mov	rax, rdx
	movups	XMMWORD PTR [rdx], xmm0
; Line 18
	ret	0
?eval@vec4@tnvx@@QEBA?AT__m128@@XZ ENDP			; tnvx::vec4::eval
_TEXT	ENDS
; Function compile flags: /Ogtpy
;	COMDAT cg_aabb
_TEXT	SEGMENT
pts$ = 8
n$ = 16
lo_out$ = 24
hi_out$ = 32
cg_aabb	PROC						; COMDAT
; File C:\Users\artem.zyktin\projects\tenvex\src\codegen\cg_elementwise.cpp
; Line 18
	movups	xmm0, XMMWORD PTR [rcx]
	mov	r10, r9
	mov	r9d, 1
	movaps	xmm1, xmm0
; Line 19
	cmp	rdx, r9
	jbe	SHORT $LN60@cg_aabb
	npad	12
$LL4@cg_aabb:
; Line 21
	mov	rax, r9
	inc	r9
	add	rax, rax
; File C:\Users\artem.zyktin\projects\tenvex\src\tenvex\expressions\core\core_sse.h
; Line 181
	minps	xmm0, XMMWORD PTR [rcx+rax*8]
; Line 175
	maxps	xmm1, XMMWORD PTR [rcx+rax*8]
; File C:\Users\artem.zyktin\projects\tenvex\src\codegen\cg_elementwise.cpp
; Line 19
	cmp	r9, rdx
	jb	SHORT $LL4@cg_aabb
; Line 24
	movups	XMMWORD PTR [r8], xmm0
; Line 25
	movups	XMMWORD PTR [r10], xmm1
; Line 26
	ret	0
$LN60@cg_aabb:
; Line 24
	movups	XMMWORD PTR [r8], xmm0
; Line 25
	movups	XMMWORD PTR [r10], xmm0
; Line 26
	ret	0
cg_aabb	ENDP
_TEXT	ENDS
; Function compile flags: /Ogtpy
;	COMDAT ??$min@Uvec4@tnvx@@U12@@tnvx@@YA?AU?$Min@Uvec4@tnvx@@U12@@0@AEBUvec4@0@0@Z
_TEXT	SEGMENT
__$ReturnUdt$ = 8
l$ = 16
r$ = 24
??$min@Uvec4@tnvx@@U12@@tnvx@@YA?AU?$Min@Uvec4@tnvx@@U12@@0@AEBUvec4@0@0@Z PROC ; tnvx::min<tnvx::vec4,tnvx::vec4>, COMDAT
; File C:\Users\artem.zyktin\projects\tenvex\src\tenvex\expressions\vec\min_impl.hpp
; Line 11
	movaps	xmm0, XMMWORD PTR [rdx]
; Line 27
	mov	rax, rcx
; Line 12
	movaps	xmm1, XMMWORD PTR [r8]
	movups	XMMWORD PTR [rcx], xmm0
	movups	XMMWORD PTR [rcx+16], xmm1
; Line 28
	ret	0
??$min@Uvec4@tnvx@@U12@@tnvx@@YA?AU?$Min@Uvec4@tnvx@@U12@@0@AEBUvec4@0@0@Z ENDP ; tnvx::min<tnvx::vec4,tnvx::vec4>
_TEXT	ENDS
; Function compile flags: /Ogtpy
;	COMDAT ??0?$Min@Uvec4@tnvx@@U12@@tnvx@@QEAA@AEIBUvec4@1@0@Z
_TEXT	SEGMENT
this$ = 8
l$ = 16
r$ = 24
??0?$Min@Uvec4@tnvx@@U12@@tnvx@@QEAA@AEIBUvec4@1@0@Z PROC ; tnvx::Min<tnvx::vec4,tnvx::vec4>::Min<tnvx::vec4,tnvx::vec4>, COMDAT
; File C:\Users\artem.zyktin\projects\tenvex\src\tenvex\expressions\vec\min_impl.hpp
; Line 11
	movaps	xmm0, XMMWORD PTR [rdx]
; Line 14
	mov	rax, rcx
	movaps	xmm1, XMMWORD PTR [r8]
	movups	XMMWORD PTR [rcx], xmm0
	movups	XMMWORD PTR [rcx+16], xmm1
	ret	0
??0?$Min@Uvec4@tnvx@@U12@@tnvx@@QEAA@AEIBUvec4@1@0@Z ENDP ; tnvx::Min<tnvx::vec4,tnvx::vec4>::Min<tnvx::vec4,tnvx::vec4>
_TEXT	ENDS
; Function compile flags: /Ogtpy
;	COMDAT ?eval@?$Min@Uvec4@tnvx@@U12@@tnvx@@QEBA?AT__m128@@XZ
_TEXT	SEGMENT
this$ = 8
__$ReturnUdt$ = 16
?eval@?$Min@Uvec4@tnvx@@U12@@tnvx@@QEBA?AT__m128@@XZ PROC ; tnvx::Min<tnvx::vec4,tnvx::vec4>::eval, COMDAT
; File C:\Users\artem.zyktin\projects\tenvex\src\tenvex\expressions\vec\min_impl.hpp
; File C:\Users\artem.zyktin\projects\tenvex\src\tenvex\expressions\core\core_sse.h
; Line 181
	movups	xmm0, XMMWORD PTR [rcx]
; File C:\Users\artem.zyktin\projects\tenvex\src\tenvex\expressions\vec\min_impl.hpp
; Line 20
	mov	rax, rdx
; File C:\Users\artem.zyktin\projects\tenvex\src\tenvex\expressions\core\core_sse.h
; Line 181
	minps	xmm0, XMMWORD PTR [rcx+16]
; File C:\Users\artem.zyktin\projects\tenvex\src\tenvex\expressions\vec\min_impl.hpp
; Line 20
	movups	XMMWORD PTR [rdx], xmm0
; Line 21
	ret	0
?eval@?$Min@Uvec4@tnvx@@U12@@tnvx@@QEBA?AT__m128@@XZ ENDP ; tnvx::Min<tnvx::vec4,tnvx::vec4>::eval
_TEXT	ENDS
; Function compile flags: /Ogtpy
;	COMDAT ??$?0U?$Min@Uvec4@tnvx@@U12@@tnvx@@@vec4@tnvx@@QEAA@AEBU?$Min@Uvec4@tnvx@@U12@@1@@Z
_TEXT	SEGMENT
this$ = 8
e$ = 16
??$?0U?$Min@Uvec4@tnvx@@U12@@tnvx@@@vec4@tnvx@@QEAA@AEBU?$Min@Uvec4@tnvx@@U12@@1@@Z PROC ; tnvx::vec4::vec4<tnvx::Min<tnvx::vec4,tnvx::vec4> >, COMDAT
; File C:\Users\artem.zyktin\projects\tenvex\src\tenvex\expressions\vec\vec4_impl.hpp
; File C:\Users\artem.zyktin\projects\tenvex\src\tenvex\expressions\core\core_sse.h
; Line 181
	movups	xmm0, XMMWORD PTR [rdx]
; File C:\Users\artem.zyktin\projects\tenvex\src\tenvex\expressions\vec\vec4_impl.hpp
; Line 60
	mov	rax, rcx
; File C:\Users\artem.zyktin\projects\tenvex\src\tenvex\expressions\core\core_sse.h
; Line 181
	minps	xmm0, XMMWORD PTR [rdx+16]
; File C:\Users\artem.zyktin\projects\tenvex\src\tenvex\expressions\vec\min_impl.hpp
; Line 20
	movups	XMMWORD PTR [rcx], xmm0
; File C:\Users\artem.zyktin\projects\tenvex\src\tenvex\expressions\vec\vec4_impl.hpp
; Line 60
	ret	0
??$?0U?$Min@Uvec4@tnvx@@U12@@tnvx@@@vec4@tnvx@@QEAA@AEBU?$Min@Uvec4@tnvx@@U12@@1@@Z ENDP ; tnvx::vec4::vec4<tnvx::Min<tnvx::vec4,tnvx::vec4> >
_TEXT	ENDS
; Function compile flags: /Ogtpy
;	COMDAT ??$max@Uvec4@tnvx@@U12@@tnvx@@YA?AU?$Max@Uvec4@tnvx@@U12@@0@AEBUvec4@0@0@Z
_TEXT	SEGMENT
__$ReturnUdt$ = 8
l$ = 16
r$ = 24
??$max@Uvec4@tnvx@@U12@@tnvx@@YA?AU?$Max@Uvec4@tnvx@@U12@@0@AEBUvec4@0@0@Z PROC ; tnvx::max<tnvx::vec4,tnvx::vec4>, COMDAT
; File C:\Users\artem.zyktin\projects\tenvex\src\tenvex\expressions\vec\max_impl.hpp
; Line 11
	movaps	xmm0, XMMWORD PTR [rdx]
; Line 28
	mov	rax, rcx
; Line 12
	movaps	xmm1, XMMWORD PTR [r8]
	movups	XMMWORD PTR [rcx], xmm0
	movups	XMMWORD PTR [rcx+16], xmm1
; Line 29
	ret	0
??$max@Uvec4@tnvx@@U12@@tnvx@@YA?AU?$Max@Uvec4@tnvx@@U12@@0@AEBUvec4@0@0@Z ENDP ; tnvx::max<tnvx::vec4,tnvx::vec4>
_TEXT	ENDS
; Function compile flags: /Ogtpy
;	COMDAT ??0?$Max@Uvec4@tnvx@@U12@@tnvx@@QEAA@AEIBUvec4@1@0@Z
_TEXT	SEGMENT
this$ = 8
l$ = 16
r$ = 24
??0?$Max@Uvec4@tnvx@@U12@@tnvx@@QEAA@AEIBUvec4@1@0@Z PROC ; tnvx::Max<tnvx::vec4,tnvx::vec4>::Max<tnvx::vec4,tnvx::vec4>, COMDAT
; File C:\Users\artem.zyktin\projects\tenvex\src\tenvex\expressions\vec\max_impl.hpp
; Line 11
	movaps	xmm0, XMMWORD PTR [rdx]
; Line 14
	mov	rax, rcx
	movaps	xmm1, XMMWORD PTR [r8]
	movups	XMMWORD PTR [rcx], xmm0
	movups	XMMWORD PTR [rcx+16], xmm1
	ret	0
??0?$Max@Uvec4@tnvx@@U12@@tnvx@@QEAA@AEIBUvec4@1@0@Z ENDP ; tnvx::Max<tnvx::vec4,tnvx::vec4>::Max<tnvx::vec4,tnvx::vec4>
_TEXT	ENDS
; Function compile flags: /Ogtpy
;	COMDAT ?eval@?$Max@Uvec4@tnvx@@U12@@tnvx@@QEBA?AT__m128@@XZ
_TEXT	SEGMENT
this$ = 8
__$ReturnUdt$ = 16
?eval@?$Max@Uvec4@tnvx@@U12@@tnvx@@QEBA?AT__m128@@XZ PROC ; tnvx::Max<tnvx::vec4,tnvx::vec4>::eval, COMDAT
; File C:\Users\artem.zyktin\projects\tenvex\src\tenvex\expressions\vec\max_impl.hpp
; File C:\Users\artem.zyktin\projects\tenvex\src\tenvex\expressions\core\core_sse.h
; Line 175
	movups	xmm0, XMMWORD PTR [rcx]
; File C:\Users\artem.zyktin\projects\tenvex\src\tenvex\expressions\vec\max_impl.hpp
; Line 20
	mov	rax, rdx
; File C:\Users\artem.zyktin\projects\tenvex\src\tenvex\expressions\core\core_sse.h
; Line 175
	maxps	xmm0, XMMWORD PTR [rcx+16]
; File C:\Users\artem.zyktin\projects\tenvex\src\tenvex\expressions\vec\max_impl.hpp
; Line 20
	movups	XMMWORD PTR [rdx], xmm0
; Line 21
	ret	0
?eval@?$Max@Uvec4@tnvx@@U12@@tnvx@@QEBA?AT__m128@@XZ ENDP ; tnvx::Max<tnvx::vec4,tnvx::vec4>::eval
_TEXT	ENDS
; Function compile flags: /Ogtpy
;	COMDAT ??$?0U?$Max@Uvec4@tnvx@@U12@@tnvx@@@vec4@tnvx@@QEAA@AEBU?$Max@Uvec4@tnvx@@U12@@1@@Z
_TEXT	SEGMENT
this$ = 8
e$ = 16
??$?0U?$Max@Uvec4@tnvx@@U12@@tnvx@@@vec4@tnvx@@QEAA@AEBU?$Max@Uvec4@tnvx@@U12@@1@@Z PROC ; tnvx::vec4::vec4<tnvx::Max<tnvx::vec4,tnvx::vec4> >, COMDAT
; File C:\Users\artem.zyktin\projects\tenvex\src\tenvex\expressions\vec\vec4_impl.hpp
; File C:\Users\artem.zyktin\projects\tenvex\src\tenvex\expressions\core\core_sse.h
; Line 175
	movups	xmm0, XMMWORD PTR [rdx]
; File C:\Users\artem.zyktin\projects\tenvex\src\tenvex\expressions\vec\vec4_impl.hpp
; Line 60
	mov	rax, rcx
; File C:\Users\artem.zyktin\projects\tenvex\src\tenvex\expressions\core\core_sse.h
; Line 175
	maxps	xmm0, XMMWORD PTR [rdx+16]
; File C:\Users\artem.zyktin\projects\tenvex\src\tenvex\expressions\vec\max_impl.hpp
; Line 20
	movups	XMMWORD PTR [rcx], xmm0
; File C:\Users\artem.zyktin\projects\tenvex\src\tenvex\expressions\vec\vec4_impl.hpp
; Line 60
	ret	0
??$?0U?$Max@Uvec4@tnvx@@U12@@tnvx@@@vec4@tnvx@@QEAA@AEBU?$Max@Uvec4@tnvx@@U12@@1@@Z ENDP ; tnvx::vec4::vec4<tnvx::Max<tnvx::vec4,tnvx::vec4> >
_TEXT	ENDS
; Function compile flags: /Ogtpy
;	COMDAT cg_saturate
_TEXT	SEGMENT
va$ = 8
out$ = 16
n$ = 24
cg_saturate PROC					; COMDAT
; File C:\Users\artem.zyktin\projects\tenvex\src\codegen\cg_elementwise.cpp
; Line 30
	movdqa	xmm1, XMMWORD PTR __xmm@3f8000003f8000003f8000003f800000
	xor	r9d, r9d
	cmp	r8, 4
	jb	SHORT $LC66@cg_saturat
	xorps	xmm2, xmm2
	lea	r11, QWORD PTR [r8-3]
	xor	r10d, r10d
	npad	5
$LL67@cg_saturat:
; Line 31
	mov	rax, r9
	lea	r10, QWORD PTR [r10+64]
	add	rax, rax
	add	r9, 4
; File C:\Users\artem.zyktin\projects\tenvex\src\tenvex\expressions\vec\max_impl.hpp
; Line 11
	movups	xmm0, XMMWORD PTR [rcx+rax*8]
; File C:\Users\artem.zyktin\projects\tenvex\src\tenvex\expressions\core\core_sse.h
; Line 175
	maxps	xmm0, xmm2
; Line 181
	minps	xmm0, xmm1
; File C:\Users\artem.zyktin\projects\tenvex\src\codegen\cg_elementwise.cpp
; Line 31
	movups	XMMWORD PTR [rdx+rax*8], xmm0
; File C:\Users\artem.zyktin\projects\tenvex\src\tenvex\expressions\vec\max_impl.hpp
; Line 11
	movups	xmm0, XMMWORD PTR [rcx+rax*8+16]
; File C:\Users\artem.zyktin\projects\tenvex\src\tenvex\expressions\core\core_sse.h
; Line 175
	maxps	xmm0, xmm2
; Line 181
	minps	xmm0, xmm1
; File C:\Users\artem.zyktin\projects\tenvex\src\codegen\cg_elementwise.cpp
; Line 31
	movups	XMMWORD PTR [rdx+rax*8+16], xmm0
; File C:\Users\artem.zyktin\projects\tenvex\src\tenvex\expressions\vec\max_impl.hpp
; Line 11
	movups	xmm0, XMMWORD PTR [r10+rcx-32]
; File C:\Users\artem.zyktin\projects\tenvex\src\tenvex\expressions\core\core_sse.h
; Line 175
	maxps	xmm0, xmm2
; Line 181
	minps	xmm0, xmm1
; File C:\Users\artem.zyktin\projects\tenvex\src\codegen\cg_elementwise.cpp
; Line 31
	movups	XMMWORD PTR [r10+rdx-32], xmm0
; File C:\Users\artem.zyktin\projects\tenvex\src\tenvex\expressions\vec\max_impl.hpp
; Line 11
	movups	xmm0, XMMWORD PTR [r10+rcx-16]
; File C:\Users\artem.zyktin\projects\tenvex\src\tenvex\expressions\core\core_sse.h
; Line 175
	maxps	xmm0, xmm2
; Line 181
	minps	xmm0, xmm1
; File C:\Users\artem.zyktin\projects\tenvex\src\codegen\cg_elementwise.cpp
; Line 31
	movups	XMMWORD PTR [r10+rdx-16], xmm0
	cmp	r9, r11
	jb	SHORT $LL67@cg_saturat
$LC66@cg_saturat:
; Line 30
	cmp	r9, r8
	jae	SHORT $LN65@cg_saturat
	xorps	xmm2, xmm2
$LC4@cg_saturat:
; Line 31
	mov	rax, r9
	inc	r9
	add	rax, rax
; File C:\Users\artem.zyktin\projects\tenvex\src\tenvex\expressions\vec\max_impl.hpp
; Line 11
	movups	xmm0, XMMWORD PTR [rcx+rax*8]
; File C:\Users\artem.zyktin\projects\tenvex\src\tenvex\expressions\core\core_sse.h
; Line 175
	maxps	xmm0, xmm2
; Line 181
	minps	xmm0, xmm1
; File C:\Users\artem.zyktin\projects\tenvex\src\codegen\cg_elementwise.cpp
; Line 31
	movups	XMMWORD PTR [rdx+rax*8], xmm0
	cmp	r9, r8
	jb	SHORT $LC4@cg_saturat
$LN65@cg_saturat:
; Line 32
	ret	0
cg_saturate ENDP
_TEXT	ENDS
; Function compile flags: /Ogtpy
;	COMDAT ??$saturate@Uvec4@tnvx@@@tnvx@@YA?AUvec4@0@AEBU10@@Z
_TEXT	SEGMENT
__$ReturnUdt$ = 8
v$ = 16
??$saturate@Uvec4@tnvx@@@tnvx@@YA?AUvec4@0@AEBU10@@Z PROC ; tnvx::saturate<tnvx::vec4>, COMDAT
; File C:\Users\artem.zyktin\projects\tenvex\src\tenvex\expressions\vec\vec_operations_impl.hpp
; File C:\Users\artem.zyktin\projects\tenvex\src\tenvex\expressions\vec\max_impl.hpp
; Line 11
	movups	xmm1, XMMWORD PTR [rdx]
	xorps	xmm0, xmm0
; File C:\Users\artem.zyktin\projects\tenvex\src\tenvex\expressions\core\core_sse.h
; Line 175
	maxps	xmm1, xmm0
; File C:\Users\artem.zyktin\projects\tenvex\src\tenvex\expressions\vec\vec_operations_impl.hpp
; Line 29
	mov	rax, rcx
; File C:\Users\artem.zyktin\projects\tenvex\src\tenvex\expressions\core\core_sse.h
; Line 181
	minps	xmm1, XMMWORD PTR __xmm@3f8000003f8000003f8000003f800000
; File C:\Users\artem.zyktin\projects\tenvex\src\tenvex\expressions\vec\min_impl.hpp
; Line 20
	movups	XMMWORD PTR [rcx], xmm1
; File C:\Users\artem.zyktin\projects\tenvex\src\tenvex\expressions\vec\vec_operations_impl.hpp
; Line 30
	ret	0
??$saturate@Uvec4@tnvx@@@tnvx@@YA?AUvec4@0@AEBU10@@Z ENDP ; tnvx::saturate<tnvx::vec4>
_TEXT	ENDS
; Function compile flags: /Ogtpy
;	COMDAT cg_with_w_expr
_TEXT	SEGMENT
va$ = 8
vb$ = 16
out$ = 24
n$ = 32
cg_with_w_expr PROC					; COMDAT
; File C:\Users\artem.zyktin\projects\tenvex\src\codegen\cg_elementwise.cpp
; Line 36
	xor	r10d, r10d
; Line 37
	test	r9, r9
	je	SHORT $LN3@cg_with_w_
	npad	8
$LL4@cg_with_w_:
; Line 38
	mov	rax, r10
	inc	r10
	add	rax, rax
; File C:\Users\artem.zyktin\projects\tenvex\src\tenvex\expressions\common\add_impl.hpp
; Line 13
	movups	xmm0, XMMWORD PTR [rdx+rax*8]
; File C:\Users\artem.zyktin\projects\tenvex\src\tenvex\expressions\core\core_sse.h
; Line 89
	addps	xmm0, XMMWORD PTR [rcx+rax*8]
; Line 230
	blendps	xmm0, XMMWORD PTR [rcx+rax*8], 8
; File C:\Users\artem.zyktin\projects\tenvex\src\codegen\cg_elementwise.cpp
; Line 38
	movups	XMMWORD PTR [r8+rax*8], xmm0
	cmp	r10, r9
	jb	SHORT $LL4@cg_with_w_
$LN3@cg_with_w_:
; Line 39
	ret	0
cg_with_w_expr ENDP
_TEXT	ENDS
; Function compile flags: /Ogtpy
;	COMDAT ??$?HUvec4@tnvx@@U01@@tnvx@@YA?AU?$Add@Uvec4@tnvx@@U12@@0@AEBUvec4@0@0@Z
_TEXT	SEGMENT
__$ReturnUdt$ = 8
l$ = 16
r$ = 24
??$?HUvec4@tnvx@@U01@@tnvx@@YA?AU?$Add@Uvec4@tnvx@@U12@@0@AEBUvec4@0@0@Z PROC ; tnvx::operator+<tnvx::vec4,tnvx::vec4>, COMDAT
; File C:\Users\artem.zyktin\projects\tenvex\src\tenvex\expressions\common\add_impl.hpp
; Line 12
	movaps	xmm0, XMMWORD PTR [rdx]
; Line 38
	mov	rax, rcx
; Line 13
	movaps	xmm1, XMMWORD PTR [r8]
	movups	XMMWORD PTR [rcx], xmm0
	movups	XMMWORD PTR [rcx+16], xmm1
; Line 39
	ret	0
??$?HUvec4@tnvx@@U01@@tnvx@@YA?AU?$Add@Uvec4@tnvx@@U12@@0@AEBUvec4@0@0@Z ENDP ; tnvx::operator+<tnvx::vec4,tnvx::vec4>
_TEXT	ENDS
; Function compile flags: /Ogtpy
;	COMDAT ??0?$Add@Uvec4@tnvx@@U12@@tnvx@@QEAA@AEIBUvec4@1@0@Z
_TEXT	SEGMENT
this$ = 8
l$ = 16
r$ = 24
??0?$Add@Uvec4@tnvx@@U12@@tnvx@@QEAA@AEIBUvec4@1@0@Z PROC ; tnvx::Add<tnvx::vec4,tnvx::vec4>::Add<tnvx::vec4,tnvx::vec4>, COMDAT
; File C:\Users\artem.zyktin\projects\tenvex\src\tenvex\expressions\common\add_impl.hpp
; Line 12
	movaps	xmm0, XMMWORD PTR [rdx]
; Line 15
	mov	rax, rcx
	movaps	xmm1, XMMWORD PTR [r8]
	movups	XMMWORD PTR [rcx], xmm0
	movups	XMMWORD PTR [rcx+16], xmm1
	ret	0
??0?$Add@Uvec4@tnvx@@U12@@tnvx@@QEAA@AEIBUvec4@1@0@Z ENDP ; tnvx::Add<tnvx::vec4,tnvx::vec4>::Add<tnvx::vec4,tnvx::vec4>
_TEXT	ENDS
; Function compile flags: /Ogtpy
;	COMDAT ?eval@?$Add@Uvec4@tnvx@@U12@@tnvx@@QEBA?AT__m128@@XZ
_TEXT	SEGMENT
this$ = 8
__$ReturnUdt$ = 16
?eval@?$Add@Uvec4@tnvx@@U12@@tnvx@@QEBA?AT__m128@@XZ PROC ; tnvx::Add<tnvx::vec4,tnvx::vec4>::eval, COMDAT
; File C:\Users\artem.zyktin\projects\tenvex\src\tenvex\expressions\common\add_impl.hpp
; File C:\Users\artem.zyktin\projects\tenvex\src\tenvex\expressions\core\core_sse.h
; Line 89
	movups	xmm0, XMMWORD PTR [rcx+16]
; File C:\Users\artem.zyktin\projects\tenvex\src\tenvex\expressions\common\add_impl.hpp
; Line 22
	mov	rax, rdx
; File C:\Users\artem.zyktin\projects\tenvex\src\tenvex\expressions\core\core_sse.h
; Line 89
	addps	xmm0, XMMWORD PTR [rcx]
; File C:\Users\artem.zyktin\projects\tenvex\src\tenvex\expressions\common\add_impl.hpp
; Line 22
	movups	XMMWORD PTR [rdx], xmm0
; Line 23
	ret	0
?eval@?$Add@Uvec4@tnvx@@U12@@tnvx@@QEBA?AT__m128@@XZ ENDP ; tnvx::Add<tnvx::vec4,tnvx::vec4>::eval
_TEXT	ENDS
; Function compile flags: /Ogtpy
;	COMDAT ??$with_w@U?$Add@Uvec4@tnvx@@U12@@tnvx@@Uvec4@2@@tnvx@@YA?AU?$WithW@U?$Add@Uvec4@tnvx@@U12@@tnvx@@Uvec4@2@@0@AEBU?$Add@Uvec4@tnvx@@U12@@0@AEBUvec4@0@@Z
_TEXT	SEGMENT
__$ReturnUdt$ = 8
l$ = 16
r$ = 24
??$with_w@U?$Add@Uvec4@tnvx@@U12@@tnvx@@Uvec4@2@@tnvx@@YA?AU?$WithW@U?$Add@Uvec4@tnvx@@U12@@tnvx@@Uvec4@2@@0@AEBU?$Add@Uvec4@tnvx@@U12@@0@AEBUvec4@0@@Z PROC ; tnvx::with_w<tnvx::Add<tnvx::vec4,tnvx::vec4>,tnvx::vec4>, COMDAT
; File C:\Users\artem.zyktin\projects\tenvex\src\tenvex\expressions\vec\with_w_impl.hpp
; Line 12
	movaps	xmm0, XMMWORD PTR [r8]
; Line 27
	mov	rax, rcx
; Line 12
	movups	XMMWORD PTR [rcx+16], xmm0
	mov	QWORD PTR [rcx], rdx
; Line 28
	ret	0
??$with_w@U?$Add@Uvec4@tnvx@@U12@@tnvx@@Uvec4@2@@tnvx@@YA?AU?$WithW@U?$Add@Uvec4@tnvx@@U12@@tnvx@@Uvec4@2@@0@AEBU?$Add@Uvec4@tnvx@@U12@@0@AEBUvec4@0@@Z ENDP ; tnvx::with_w<tnvx::Add<tnvx::vec4,tnvx::vec4>,tnvx::vec4>
_TEXT	ENDS
; Function compile flags: /Ogtpy
;	COMDAT ??0?$WithW@U?$Add@Uvec4@tnvx@@U12@@tnvx@@Uvec4@2@@tnvx@@QEAA@AEIBU?$Add@Uvec4@tnvx@@U12@@1@AEIBUvec4@1@@Z
_TEXT	SEGMENT
this$ = 8
l$ = 16
r$ = 24
??0?$WithW@U?$Add@Uvec4@tnvx@@U12@@tnvx@@Uvec4@2@@tnvx@@QEAA@AEIBU?$Add@Uvec4@tnvx@@U12@@1@AEIBUvec4@1@@Z PROC ; tnvx::WithW<tnvx::Add<tnvx::vec4,tnvx::vec4>,tnvx::vec4>::WithW<tnvx::Add<tnvx::vec4,tnvx::vec4>,tnvx::vec4>, COMDAT
; File C:\Users\artem.zyktin\projects\tenvex\src\tenvex\expressions\vec\with_w_impl.hpp
; Line 12
	movaps	xmm0, XMMWORD PTR [r8]
; Line 14
	mov	rax, rcx
	movups	XMMWORD PTR [rcx+16], xmm0
	mov	QWORD PTR [rcx], rdx
	ret	0
??0?$WithW@U?$Add@Uvec4@tnvx@@U12@@tnvx@@Uvec4@2@@tnvx@@QEAA@AEIBU?$Add@Uvec4@tnvx@@U12@@1@AEIBUvec4@1@@Z ENDP ; tnvx::WithW<tnvx::Add<tnvx::vec4,tnvx::vec4>,tnvx::vec4>::WithW<tnvx::Add<tnvx::vec4,tnvx::vec4>,tnvx::vec4>
_TEXT	ENDS
; Function compile flags: /Ogtpy
;	COMDAT ?eval@?$WithW@U?$Add@Uvec4@tnvx@@U12@@tnvx@@Uvec4@2@@tnvx@@QEBA?AT__m128@@XZ
_TEXT	SEGMENT
this$ = 8
__$ReturnUdt$ = 16
?eval@?$WithW@U?$Add@Uvec4@tnvx@@U12@@tnvx@@Uvec4@2@@tnvx@@QEBA?AT__m128@@XZ PROC ; tnvx::WithW<tnvx::Add<tnvx::vec4,tnvx::vec4>,tnvx::vec4>::eval, COMDAT
; File C:\Users\artem.zyktin\projects\tenvex\src\tenvex\expressions\vec\with_w_impl.hpp
; Line 20
	mov	rax, QWORD PTR [rcx]
; File C:\Users\artem.zyktin\projects\tenvex\src\tenvex\expressions\core\core_sse.h
; Line 89
	movups	xmm0, XMMWORD PTR [rax+16]
	addps	xmm0, XMMWORD PTR [rax]
; File C:\Users\artem.zyktin\projects\tenvex\src\tenvex\expressions\vec\with_w_impl.hpp
; Line 20
	mov	rax, rdx
; File C:\Users\artem.zyktin\projects\tenvex\src\tenvex\expressions\core\core_sse.h
; Line 230
	blendps	xmm0, XMMWORD PTR [rcx+16], 8
; File C:\Users\artem.zyktin\projects\tenvex\src\tenvex\expressions\vec\with_w_impl.hpp
; Line 20
	movups	XMMWORD PTR [rdx], xmm0
; Line 21
	ret	0
?eval@?$WithW@U?$Add@Uvec4@tnvx@@U12@@tnvx@@Uvec4@2@@tnvx@@QEBA?AT__m128@@XZ ENDP ; tnvx::WithW<tnvx::Add<tnvx::vec4,tnvx::vec4>,tnvx::vec4>::eval
_TEXT	ENDS
; Function compile flags: /Ogtpy
;	COMDAT ??$clamp@Uvec4@tnvx@@U12@U12@@tnvx@@YA?AUvec4@0@AEBU10@00@Z
_TEXT	SEGMENT
__$ReturnUdt$ = 8
v$ = 16
lo$ = 24
hi$ = 32
??$clamp@Uvec4@tnvx@@U12@U12@@tnvx@@YA?AUvec4@0@AEBU10@00@Z PROC ; tnvx::clamp<tnvx::vec4,tnvx::vec4,tnvx::vec4>, COMDAT
; File C:\Users\artem.zyktin\projects\tenvex\src\tenvex\expressions\vec\vec_operations_impl.hpp
; File C:\Users\artem.zyktin\projects\tenvex\src\tenvex\expressions\vec\max_impl.hpp
; Line 11
	movups	xmm0, XMMWORD PTR [rdx]
; File C:\Users\artem.zyktin\projects\tenvex\src\tenvex\expressions\vec\vec_operations_impl.hpp
; Line 22
	mov	rax, rcx
; File C:\Users\artem.zyktin\projects\tenvex\src\tenvex\expressions\core\core_sse.h
; Line 175
	maxps	xmm0, XMMWORD PTR [r8]
; Line 181
	minps	xmm0, XMMWORD PTR [r9]
; File C:\Users\artem.zyktin\projects\tenvex\src\tenvex\expressions\vec\min_impl.hpp
; Line 20
	movups	XMMWORD PTR [rcx], xmm0
; File C:\Users\artem.zyktin\projects\tenvex\src\tenvex\expressions\vec\vec_operations_impl.hpp
; Line 23
	ret	0
??$clamp@Uvec4@tnvx@@U12@U12@@tnvx@@YA?AUvec4@0@AEBU10@00@Z ENDP ; tnvx::clamp<tnvx::vec4,tnvx::vec4,tnvx::vec4>
_TEXT	ENDS
; Function compile flags: /Ogtpy
;	COMDAT ??$min@U?$Max@Uvec4@tnvx@@U12@@tnvx@@Uvec4@2@@tnvx@@YA?AU?$Min@U?$Max@Uvec4@tnvx@@U12@@tnvx@@Uvec4@2@@0@AEBU?$Max@Uvec4@tnvx@@U12@@0@AEBUvec4@0@@Z
_TEXT	SEGMENT
__$ReturnUdt$ = 8
l$ = 16
r$ = 24
??$min@U?$Max@Uvec4@tnvx@@U12@@tnvx@@Uvec4@2@@tnvx@@YA?AU?$Min@U?$Max@Uvec4@tnvx@@U12@@tnvx@@Uvec4@2@@0@AEBU?$Max@Uvec4@tnvx@@U12@@0@AEBUvec4@0@@Z PROC ; tnvx::min<tnvx::Max<tnvx::vec4,tnvx::vec4>,tnvx::vec4>, COMDAT
; File C:\Users\artem.zyktin\projects\tenvex\src\tenvex\expressions\vec\min_impl.hpp
; Line 12
	movaps	xmm0, XMMWORD PTR [r8]
; Line 27
	mov	rax, rcx
; Line 12
	movups	XMMWORD PTR [rcx+16], xmm0
	mov	QWORD PTR [rcx], rdx
; Line 28
	ret	0
??$min@U?$Max@Uvec4@tnvx@@U12@@tnvx@@Uvec4@2@@tnvx@@YA?AU?$Min@U?$Max@Uvec4@tnvx@@U12@@tnvx@@Uvec4@2@@0@AEBU?$Max@Uvec4@tnvx@@U12@@0@AEBUvec4@0@@Z ENDP ; tnvx::min<tnvx::Max<tnvx::vec4,tnvx::vec4>,tnvx::vec4>
_TEXT	ENDS
; Function compile flags: /Ogtpy
;	COMDAT ??0?$Min@U?$Max@Uvec4@tnvx@@U12@@tnvx@@Uvec4@2@@tnvx@@QEAA@AEIBU?$Max@Uvec4@tnvx@@U12@@1@AEIBUvec4@1@@Z
_TEXT	SEGMENT
this$ = 8
l$ = 16
r$ = 24
??0?$Min@U?$Max@Uvec4@tnvx@@U12@@tnvx@@Uvec4@2@@tnvx@@QEAA@AEIBU?$Max@Uvec4@tnvx@@U12@@1@AEIBUvec4@1@@Z PROC ; tnvx::Min<tnvx::Max<tnvx::vec4,tnvx::vec4>,tnvx::vec4>::Min<tnvx::Max<tnvx::vec4,tnvx::vec4>,tnvx::vec4>, COMDAT
; File C:\Users\artem.zyktin\projects\tenvex\src\tenvex\expressions\vec\min_impl.hpp
; Line 12
	movaps	xmm0, XMMWORD PTR [r8]
; Line 14
	mov	rax, rcx
	movups	XMMWORD PTR [rcx+16], xmm0
	mov	QWORD PTR [rcx], rdx
	ret	0
??0?$Min@U?$Max@Uvec4@tnvx@@U12@@tnvx@@Uvec4@2@@tnvx@@QEAA@AEIBU?$Max@Uvec4@tnvx@@U12@@1@AEIBUvec4@1@@Z ENDP ; tnvx::Min<tnvx::Max<tnvx::vec4,tnvx::vec4>,tnvx::vec4>::Min<tnvx::Max<tnvx::vec4,tnvx::vec4>,tnvx::vec4>
_TEXT	ENDS
; Function compile flags: /Ogtpy
;	COMDAT ?eval@?$Min@U?$Max@Uvec4@tnvx@@U12@@tnvx@@Uvec4@2@@tnvx@@QEBA?AT__m128@@XZ
_TEXT	SEGMENT
this$ = 8
__$ReturnUdt$ = 16
?eval@?$Min@U?$Max@Uvec4@tnvx@@U12@@tnvx@@Uvec4@2@@tnvx@@QEBA?AT__m128@@XZ PROC ; tnvx::Min<tnvx::Max<tnvx::vec4,tnvx::vec4>,tnvx::vec4>::eval, COMDAT
; File C:\Users\artem.zyktin\projects\tenvex\src\tenvex\expressions\vec\min_impl.hpp
; Line 20
	mov	rax, QWORD PTR [rcx]
; File C:\Users\artem.zyktin\projects\tenvex\src\tenvex\expressions\core\core_sse.h
; Line 175
	movups	xmm0, XMMWORD PTR [rax]
	maxps	xmm0, XMMWORD PTR [rax+16]
; File C:\Users\artem.zyktin\projects\tenvex\src\tenvex\expressions\vec\min_impl.hpp
; Line 20
	mov	rax, rdx
; File C:\Users\artem.zyktin\projects\tenvex\src\tenvex\expressions\core\core_sse.h
; Line 181
	minps	xmm0, XMMWORD PTR [rcx+16]
; File C:\Users\artem.zyktin\projects\tenvex\src\tenvex\expressions\vec\min_impl.hpp
; Line 20
	movups	XMMWORD PTR [rdx], xmm0
; Line 21
	ret	0
?eval@?$Min@U?$Max@Uvec4@tnvx@@U12@@tnvx@@Uvec4@2@@tnvx@@QEBA?AT__m128@@XZ ENDP ; tnvx::Min<tnvx::Max<tnvx::vec4,tnvx::vec4>,tnvx::vec4>::eval
_TEXT	ENDS
; Function compile flags: /Ogtpy
;	COMDAT ??$?0U?$Min@U?$Max@Uvec4@tnvx@@U12@@tnvx@@Uvec4@2@@tnvx@@@vec4@tnvx@@QEAA@AEBU?$Min@U?$Max@Uvec4@tnvx@@U12@@tnvx@@Uvec4@2@@1@@Z
_TEXT	SEGMENT
this$ = 8
e$ = 16
??$?0U?$Min@U?$Max@Uvec4@tnvx@@U12@@tnvx@@Uvec4@2@@tnvx@@@vec4@tnvx@@QEAA@AEBU?$Min@U?$Max@Uvec4@tnvx@@U12@@tnvx@@Uvec4@2@@1@@Z PROC ; tnvx::vec4::vec4<tnvx::Min<tnvx::Max<tnvx::vec4,tnvx::vec4>,tnvx::vec4> >, COMDAT
; File C:\Users\artem.zyktin\projects\tenvex\src\tenvex\expressions\vec\vec4_impl.hpp
; File C:\Users\artem.zyktin\projects\tenvex\src\tenvex\expressions\vec\min_impl.hpp
; Line 20
	mov	rax, QWORD PTR [rdx]
; File C:\Users\artem.zyktin\projects\tenvex\src\tenvex\expressions\core\core_sse.h
; Line 175
	movups	xmm0, XMMWORD PTR [rax]
	maxps	xmm0, XMMWORD PTR [rax+16]
; File C:\Users\artem.zyktin\projects\tenvex\src\tenvex\expressions\vec\vec4_impl.hpp
; Line 60
	mov	rax, rcx
; File C:\Users\artem.zyktin\projects\tenvex\src\tenvex\expressions\core\core_sse.h
; Line 181
	minps	xmm0, XMMWORD PTR [rdx+16]
; File C:\Users\artem.zyktin\projects\tenvex\src\tenvex\expressions\vec\min_impl.hpp
; Line 20
	movups	XMMWORD PTR [rcx], xmm0
; File C:\Users\artem.zyktin\projects\tenvex\src\tenvex\expressions\vec\vec4_impl.hpp
; Line 60
	ret	0
??$?0U?$Min@U?$Max@Uvec4@tnvx@@U12@@tnvx@@Uvec4@2@@tnvx@@@vec4@tnvx@@QEAA@AEBU?$Min@U?$Max@Uvec4@tnvx@@U12@@tnvx@@Uvec4@2@@1@@Z ENDP ; tnvx::vec4::vec4<tnvx::Min<tnvx::Max<tnvx::vec4,tnvx::vec4>,tnvx::vec4> >
_TEXT	ENDS
END
