; Microsoft (R) C/C++ Optimizing Compiler Version 19.51.36248 for x64
; cl /nologo /c /O2 /std:c++20 /EHsc /W3 /Isrc\tenvex /FA cg_normalize.cpp
; Listing generated by Microsoft (R) Optimizing Compiler Version 19.51.36248.0 

include listing.inc

INCLUDELIB LIBCMT
INCLUDELIB OLDNAMES

PUBLIC	?dot3@detail@tnvx@@YA?AT__m128@@T3@0@Z		; tnvx::detail::dot3
PUBLIC	?dot4@detail@tnvx@@YA?AT__m128@@T3@0@Z		; tnvx::detail::dot4
PUBLIC	?magnitude3@detail@tnvx@@YA?AT__m128@@T3@@Z	; tnvx::detail::magnitude3
PUBLIC	?magnitude4@detail@tnvx@@YA?AT__m128@@T3@@Z	; tnvx::detail::magnitude4
PUBLIC	?normalize3@detail@tnvx@@YA?AT__m128@@T3@@Z	; tnvx::detail::normalize3
PUBLIC	?rsqrt@detail@tnvx@@YA?AT__m128@@T3@@Z		; tnvx::detail::rsqrt
PUBLIC	?normalize3_fast@detail@tnvx@@YA?AT__m128@@T3@@Z ; tnvx::detail::normalize3_fast
PUBLIC	?normalize4@detail@tnvx@@YA?AT__m128@@T3@@Z	; tnvx::detail::normalize4
PUBLIC	?eval@vec4@tnvx@@QEBA?AT__m128@@XZ		; tnvx::vec4::eval
PUBLIC	?eval@quat@tnvx@@QEBA?AT__m128@@XZ		; tnvx::quat::eval
PUBLIC	??$normalize3@Uvec4@tnvx@@@tnvx@@YA?AU?$Normalize3@Uvec4@tnvx@@@0@AEBUvec4@0@@Z ; tnvx::normalize3<tnvx::vec4>
PUBLIC	??0?$Normalize3@Uvec4@tnvx@@@tnvx@@QEAA@AEIBUvec4@1@@Z ; tnvx::Normalize3<tnvx::vec4>::Normalize3<tnvx::vec4>
PUBLIC	?eval@?$Normalize3@Uvec4@tnvx@@@tnvx@@QEBA?AT__m128@@XZ ; tnvx::Normalize3<tnvx::vec4>::eval
PUBLIC	??$normalize4@Uquat@tnvx@@@tnvx@@YA?AU?$Normalize4@Uquat@tnvx@@@0@AEBUquat@0@@Z ; tnvx::normalize4<tnvx::quat>
PUBLIC	??0?$Normalize4@Uquat@tnvx@@@tnvx@@QEAA@AEIBUquat@1@@Z ; tnvx::Normalize4<tnvx::quat>::Normalize4<tnvx::quat>
PUBLIC	?eval@?$Normalize4@Uquat@tnvx@@@tnvx@@QEBA?AT__m128@@XZ ; tnvx::Normalize4<tnvx::quat>::eval
PUBLIC	cg_normalize3
PUBLIC	cg_normalize3_fast
PUBLIC	??$normalize3_fast@Uvec4@tnvx@@@tnvx@@YA?AU?$Normalize3Fast@Uvec4@tnvx@@@0@AEBUvec4@0@@Z ; tnvx::normalize3_fast<tnvx::vec4>
PUBLIC	??0?$Normalize3Fast@Uvec4@tnvx@@@tnvx@@QEAA@AEIBUvec4@1@@Z ; tnvx::Normalize3Fast<tnvx::vec4>::Normalize3Fast<tnvx::vec4>
PUBLIC	?eval@?$Normalize3Fast@Uvec4@tnvx@@@tnvx@@QEBA?AT__m128@@XZ ; tnvx::Normalize3Fast<tnvx::vec4>::eval
PUBLIC	cg_normalize4
PUBLIC	__xmm@3f0000003f0000003f0000003f000000
PUBLIC	__xmm@3fc000003fc000003fc000003fc00000
EXTRN	_fltused:DWORD
;	COMDAT pdata
pdata	SEGMENT
$pdata$cg_normalize3_fast DD imagerel $LN42
	DD	imagerel $LN42+484
	DD	imagerel $unwind$cg_normalize3_fast
pdata	ENDS
;	COMDAT __xmm@3fc000003fc000003fc000003fc00000
CONST	SEGMENT
__xmm@3fc000003fc000003fc000003fc00000 DB 00H, 00H, 0c0H, '?', 00H, 00H, 0c0H
	DB	'?', 00H, 00H, 0c0H, '?', 00H, 00H, 0c0H, '?'
CONST	ENDS
;	COMDAT __xmm@3f0000003f0000003f0000003f000000
CONST	SEGMENT
__xmm@3f0000003f0000003f0000003f000000 DB 00H, 00H, 00H, '?', 00H, 00H, 00H
	DB	'?', 00H, 00H, 00H, '?', 00H, 00H, 00H, '?'
CONST	ENDS
;	COMDAT xdata
xdata	SEGMENT
$unwind$cg_normalize3_fast DD 031301H
	DD	06813H
	DD	02204H
xdata	ENDS
; Function compile flags: /Ogtpy
;	COMDAT ?dot3@detail@tnvx@@YA?AT__m128@@T3@0@Z
_TEXT	SEGMENT
l$ = 8
r$ = 16
?dot3@detail@tnvx@@YA?AT__m128@@T3@0@Z PROC		; tnvx::detail::dot3, COMDAT
; File C:\Users\artem.zyktin\projects\tenvex\src\tenvex\expressions\core\core_sse.h
; Line 114
	movups	xmm2, XMMWORD PTR [rcx]
	mulps	xmm2, XMMWORD PTR [rdx]
; Line 116
	movaps	xmm0, xmm2
	movaps	xmm1, xmm2
	shufps	xmm1, xmm2, 85				; 00000055H
	addss	xmm0, xmm1
; Line 117
	movhlps	xmm2, xmm2
; Line 118
	addss	xmm0, xmm2
; Line 119
	shufps	xmm0, xmm0, 0
; Line 120
	ret	0
?dot3@detail@tnvx@@YA?AT__m128@@T3@0@Z ENDP		; tnvx::detail::dot3
_TEXT	ENDS
; Function compile flags: /Ogtpy
;	COMDAT ?dot4@detail@tnvx@@YA?AT__m128@@T3@0@Z
_TEXT	SEGMENT
l$ = 8
r$ = 16
?dot4@detail@tnvx@@YA?AT__m128@@T3@0@Z PROC		; tnvx::detail::dot4, COMDAT
; File C:\Users\artem.zyktin\projects\tenvex\src\tenvex\expressions\core\core_sse.h
; Line 125
	movups	xmm0, XMMWORD PTR [rcx]
	mulps	xmm0, XMMWORD PTR [rdx]
; Line 126
	haddps	xmm0, xmm0
; Line 127
	haddps	xmm0, xmm0
; Line 128
	ret	0
?dot4@detail@tnvx@@YA?AT__m128@@T3@0@Z ENDP		; tnvx::detail::dot4
_TEXT	ENDS
; Function compile flags: /Ogtpy
;	COMDAT ?magnitude3@detail@tnvx@@YA?AT__m128@@T3@@Z
_TEXT	SEGMENT
v$ = 8
?magnitude3@detail@tnvx@@YA?AT__m128@@T3@@Z PROC	; tnvx::detail::magnitude3, COMDAT
; File C:\Users\artem.zyktin\projects\tenvex\src\tenvex\expressions\core\core_sse.h
; Line 133
	movups	xmm2, XMMWORD PTR [rcx]
; Line 114
	mulps	xmm2, xmm2
; Line 116
	movaps	xmm1, xmm2
	movaps	xmm0, xmm2
	shufps	xmm0, xmm2, 85				; 00000055H
	addss	xmm1, xmm0
; Line 117
	movhlps	xmm2, xmm2
; Line 118
	addss	xmm1, xmm2
; Line 119
	shufps	xmm1, xmm1, 0
; Line 133
	sqrtps	xmm0, xmm1
; Line 134
	ret	0
?magnitude3@detail@tnvx@@YA?AT__m128@@T3@@Z ENDP	; tnvx::detail::magnitude3
_TEXT	ENDS
; Function compile flags: /Ogtpy
;	COMDAT ?magnitude4@detail@tnvx@@YA?AT__m128@@T3@@Z
_TEXT	SEGMENT
v$ = 8
?magnitude4@detail@tnvx@@YA?AT__m128@@T3@@Z PROC	; tnvx::detail::magnitude4, COMDAT
; File C:\Users\artem.zyktin\projects\tenvex\src\tenvex\expressions\core\core_sse.h
; Line 145
	movups	xmm0, XMMWORD PTR [rcx]
; Line 125
	mulps	xmm0, xmm0
; Line 126
	haddps	xmm0, xmm0
; Line 127
	haddps	xmm0, xmm0
; Line 145
	sqrtps	xmm0, xmm0
; Line 146
	ret	0
?magnitude4@detail@tnvx@@YA?AT__m128@@T3@@Z ENDP	; tnvx::detail::magnitude4
_TEXT	ENDS
; Function compile flags: /Ogtpy
;	COMDAT ?normalize3@detail@tnvx@@YA?AT__m128@@T3@@Z
_TEXT	SEGMENT
v$ = 8
?normalize3@detail@tnvx@@YA?AT__m128@@T3@@Z PROC	; tnvx::detail::normalize3, COMDAT
; File C:\Users\artem.zyktin\projects\tenvex\src\tenvex\expressions\core\core_sse.h
; Line 157
	movups	xmm3, XMMWORD PTR [rcx]
; Line 114
	movaps	xmm2, xmm3
	mulps	xmm2, xmm3
; Line 116
	movaps	xmm1, xmm2
	movaps	xmm0, xmm2
	shufps	xmm0, xmm2, 85				; 00000055H
	addss	xmm1, xmm0
; Line 117
	movhlps	xmm2, xmm2
; Line 157
	movaps	xmm0, xmm3
; Line 118
	addss	xmm1, xmm2
; Line 119
	shufps	xmm1, xmm1, 0
; Line 133
	sqrtps	xmm1, xmm1
; Line 157
	divps	xmm0, xmm1
	blendps	xmm0, xmm3, 8
; Line 158
	ret	0
?normalize3@detail@tnvx@@YA?AT__m128@@T3@@Z ENDP	; tnvx::detail::normalize3
_TEXT	ENDS
; Function compile flags: /Ogtpy
;	COMDAT ?rsqrt@detail@tnvx@@YA?AT__m128@@T3@@Z
_TEXT	SEGMENT
x$ = 8
?rsqrt@detail@tnvx@@YA?AT__m128@@T3@@Z PROC		; tnvx::detail::rsqrt, COMDAT
; File C:\Users\artem.zyktin\projects\tenvex\src\tenvex\expressions\core\core_sse.h
; Line 213
	movups	xmm0, XMMWORD PTR [rcx]
; Line 215
	movdqa	xmm1, XMMWORD PTR __xmm@3f0000003f0000003f0000003f000000
	rsqrtps	xmm2, xmm0
	mulps	xmm1, xmm0
	movaps	xmm0, xmm2
	mulps	xmm0, xmm2
	mulps	xmm1, xmm0
	movdqa	xmm0, XMMWORD PTR __xmm@3fc000003fc000003fc000003fc00000
	subps	xmm0, xmm1
; Line 217
	mulps	xmm0, xmm2
; Line 218
	ret	0
?rsqrt@detail@tnvx@@YA?AT__m128@@T3@@Z ENDP		; tnvx::detail::rsqrt
_TEXT	ENDS
; Function compile flags: /Ogtpy
;	COMDAT ?normalize3_fast@detail@tnvx@@YA?AT__m128@@T3@@Z
_TEXT	SEGMENT
v$ = 8
?normalize3_fast@detail@tnvx@@YA?AT__m128@@T3@@Z PROC	; tnvx::detail::normalize3_fast, COMDAT
; File C:\Users\artem.zyktin\projects\tenvex\src\tenvex\expressions\core\core_sse.h
; Line 223
	movups	xmm4, XMMWORD PTR [rcx]
; Line 114
	movaps	xmm1, xmm4
	mulps	xmm1, xmm4
; Line 116
	movaps	xmm2, xmm1
	movaps	xmm0, xmm1
	shufps	xmm0, xmm1, 85				; 00000055H
	addss	xmm2, xmm0
; Line 117
	movhlps	xmm1, xmm1
; Line 118
	addss	xmm2, xmm1
; Line 215
	movdqa	xmm1, XMMWORD PTR __xmm@3f0000003f0000003f0000003f000000
; Line 119
	shufps	xmm2, xmm2, 0
; Line 213
	rsqrtps	xmm3, xmm2
; Line 215
	mulps	xmm1, xmm2
	movaps	xmm0, xmm3
	mulps	xmm0, xmm3
	mulps	xmm1, xmm0
	movdqa	xmm0, XMMWORD PTR __xmm@3fc000003fc000003fc000003fc00000
	subps	xmm0, xmm1
; Line 217
	mulps	xmm0, xmm3
; Line 224
	mulps	xmm0, xmm4
	blendps	xmm0, xmm4, 8
; Line 225
	ret	0
?normalize3_fast@detail@tnvx@@YA?AT__m128@@T3@@Z ENDP	; tnvx::detail::normalize3_fast
_TEXT	ENDS
; Function compile flags: /Ogtpy
;	COMDAT ?normalize4@detail@tnvx@@YA?AT__m128@@T3@@Z
_TEXT	SEGMENT
q$ = 8
?normalize4@detail@tnvx@@YA?AT__m128@@T3@@Z PROC	; tnvx::detail::normalize4, COMDAT
; File C:\Users\artem.zyktin\projects\tenvex\src\tenvex\expressions\core\core_sse.h
; Line 279
	movups	xmm0, XMMWORD PTR [rcx]
; Line 125
	movaps	xmm1, xmm0
	mulps	xmm1, xmm0
; Line 126
	haddps	xmm1, xmm1
; Line 127
	haddps	xmm1, xmm1
; Line 145
	sqrtps	xmm1, xmm1
; Line 279
	divps	xmm0, xmm1
; Line 280
	ret	0
?normalize4@detail@tnvx@@YA?AT__m128@@T3@@Z ENDP	; tnvx::detail::normalize4
_TEXT	ENDS
; Function compile flags: /Ogtpy
;	COMDAT ?eval@vec4@tnvx@@QEBA?AT__m128@@XZ
_TEXT	SEGMENT
this$ = 8
__$ReturnUdt$ = 16
?eval@vec4@tnvx@@QEBA?AT__m128@@XZ PROC			; tnvx::vec4::eval, COMDAT
; File C:\Users\artem.zyktin\projects\tenvex\src\tenvex\expressions\vec\vec4_impl.hpp
; Line 17
	movups	xmm0, XMMWORD PTR [rcx]
	mov	rax, rdx
	movups	XMMWORD PTR [rdx], xmm0
; Line 18
	ret	0
?eval@vec4@tnvx@@QEBA?AT__m128@@XZ ENDP			; tnvx::vec4::eval
_TEXT	ENDS
; Function compile flags: /Ogtpy
;	COMDAT ?eval@quat@tnvx@@QEBA?AT__m128@@XZ
_TEXT	SEGMENT
this$ = 8
__$ReturnUdt$ = 16
?eval@quat@tnvx@@QEBA?AT__m128@@XZ PROC			; tnvx::quat::eval, COMDAT
; File C:\Users\artem.zyktin\projects\tenvex\src\tenvex\expressions\quat\quat_impl.hpp
; Line 26
	movups	xmm0, XMMWORD PTR [rcx]
	mov	rax, rdx
	movups	XMMWORD PTR [rdx], xmm0
; Line 27
	ret	0
?eval@quat@tnvx@@QEBA?AT__m128@@XZ ENDP			; tnvx::quat::eval
_TEXT	ENDS
; Function compile flags: /Ogtpy
;	COMDAT ??$normalize3@Uvec4@tnvx@@@tnvx@@YA?AU?$Normalize3@Uvec4@tnvx@@@0@AEBUvec4@0@@Z
_TEXT	SEGMENT
__$ReturnUdt$ = 8
e$ = 16
??$normalize3@Uvec4@tnvx@@@tnvx@@YA?AU?$Normalize3@Uvec4@tnvx@@@0@AEBUvec4@0@@Z PROC ; tnvx::normalize3<tnvx::vec4>, COMDAT
; File C:\Users\artem.zyktin\projects\tenvex\src\tenvex\expressions\common\normalize3_impl.hpp
; Line 11
	movaps	xmm0, XMMWORD PTR [rdx]
; Line 26
	mov	rax, rcx
; Line 11
	movups	XMMWORD PTR [rcx], xmm0
; Line 27
	ret	0
??$normalize3@Uvec4@tnvx@@@tnvx@@YA?AU?$Normalize3@Uvec4@tnvx@@@0@AEBUvec4@0@@Z ENDP ; tnvx::normalize3<tnvx::vec4>
_TEXT	ENDS
; Function compile flags: /Ogtpy
;	COMDAT ??0?$Normalize3@Uvec4@tnvx@@@tnvx@@QEAA@AEIBUvec4@1@@Z
_TEXT	SEGMENT
this$ = 8
e$ = 16
??0?$Normalize3@Uvec4@tnvx@@@tnvx@@QEAA@AEIBUvec4@1@@Z PROC ; tnvx::Normalize3<tnvx::vec4>::Normalize3<tnvx::vec4>, COMDAT
; File C:\Users\artem.zyktin\projects\tenvex\src\tenvex\expressions\common\normalize3_impl.hpp
; Line 11
	movaps	xmm0, XMMWORD PTR [rdx]
; Line 13
	mov	rax, rcx
	movups	XMMWORD PTR [rcx], xmm0
	ret	0
??0?$Normalize3@Uvec4@tnvx@@@tnvx@@QEAA@AEIBUvec4@1@@Z ENDP ; tnvx::Normalize3<tnvx::vec4>::Normalize3<tnvx::vec4>
_TEXT	ENDS
; Function compile flags: /Ogtpy
;	COMDAT ?eval@?$Normalize3@Uvec4@tnvx@@@tnvx@@QEBA?AT__m128@@XZ
_TEXT	SEGMENT
this$ = 8
__$ReturnUdt$ = 16
?eval@?$Normalize3@Uvec4@tnvx@@@tnvx@@QEBA?AT__m128@@XZ PROC ; tnvx::Normalize3<tnvx::vec4>::eval, COMDAT
; File C:\Users\artem.zyktin\projects\tenvex\src\tenvex\expressions\common\normalize3_impl.hpp
; File C:\Users\artem.zyktin\projects\tenvex\src\tenvex\expressions\vec\vec4_impl.hpp
; Line 17
	movups	xmm3, XMMWORD PTR [rcx]
; File C:\Users\artem.zyktin\projects\tenvex\src\tenvex\expressions\common\normalize3_impl.hpp
; Line 19
	mov	rax, rdx
; File C:\Users\artem.zyktin\projects\tenvex\src\tenvex\expressions\core\core_sse.h
; Line 114
	movaps	xmm2, xmm3
	mulps	xmm2, xmm3
; Line 116
	movaps	xmm1, xmm2
	movaps	xmm0, xmm2
	shufps	xmm0, xmm2, 85				; 00000055H
	addss	xmm1, xmm0
; Line 117
	movhlps	xmm2, xmm2
; Line 118
	addss	xmm1, xmm2
; Line 119
	shufps	xmm1, xmm1, 0
; Line 133
	sqrtps	xmm0, xmm1
; Line 157
	movaps	xmm1, xmm3
	divps	xmm1, xmm0
	blendps	xmm1, xmm3, 8
; File C:\Users\artem.zyktin\projects\tenvex\src\tenvex\expressions\common\normalize3_impl.hpp
; Line 19
	movups	XMMWORD PTR [rdx], xmm1
; Line 20
	ret	0
?eval@?$Normalize3@Uvec4@tnvx@@@tnvx@@QEBA?AT__m128@@XZ ENDP ; tnvx::Normalize3<tnvx::vec4>::eval
_TEXT	ENDS
; Function compile flags: /Ogtpy
;	COMDAT ??$normalize4@Uquat@tnvx@@@tnvx@@YA?AU?$Normalize4@Uquat@tnvx@@@0@AEBUquat@0@@Z
_TEXT	SEGMENT
__$ReturnUdt$ = 8
e$ = 16
??$normalize4@Uquat@tnvx@@@tnvx@@YA?AU?$Normalize4@Uquat@tnvx@@@0@AEBUquat@0@@Z PROC ; tnvx::normalize4<tnvx::quat>, COMDAT
; File C:\Users\artem.zyktin\projects\tenvex\src\tenvex\expressions\common\normalize4_impl.hpp
; Line 11
	movaps	xmm0, XMMWORD PTR [rdx]
; Line 26
	mov	rax, rcx
; Line 11
	movups	XMMWORD PTR [rcx], xmm0
; Line 27
	ret	0
??$normalize4@Uquat@tnvx@@@tnvx@@YA?AU?$Normalize4@Uquat@tnvx@@@0@AEBUquat@0@@Z ENDP ; tnvx::normalize4<tnvx::quat>
_TEXT	ENDS
; Function compile flags: /Ogtpy
;	COMDAT ??0?$Normalize4@Uquat@tnvx@@@tnvx@@QEAA@AEIBUquat@1@@Z
_TEXT	SEGMENT
this$ = 8
e$ = 16
??0?$Normalize4@Uquat@tnvx@@@tnvx@@QEAA@AEIBUquat@1@@Z PROC ; tnvx::Normalize4<tnvx::quat>::Normalize4<tnvx::quat>, COMDAT
; File C:\Users\artem.zyktin\projects\tenvex\src\tenvex\expressions\common\normalize4_impl.hpp
; Line 11
	movaps	xmm0, XMMWORD PTR [rdx]
; Line 13
	mov	rax, rcx
	movups	XMMWORD PTR [rcx], xmm0
	ret	0
??0?$Normalize4@Uquat@tnvx@@@tnvx@@QEAA@AEIBUquat@1@@Z ENDP ; tnvx::Normalize4<tnvx::quat>::Normalize4<tnvx::quat>
_TEXT	ENDS
; Function compile flags: /Ogtpy
;	COMDAT ?eval@?$Normalize4@Uquat@tnvx@@@tnvx@@QEBA?AT__m128@@XZ
_TEXT	SEGMENT
this$ = 8
__$ReturnUdt$ = 16
?eval@?$Normalize4@Uquat@tnvx@@@tnvx@@QEBA?AT__m128@@XZ PROC ; tnvx::Normalize4<tnvx::quat>::eval, COMDAT
; File C:\Users\artem.zyktin\projects\tenvex\src\tenvex\expressions\common\normalize4_impl.hpp
; File C:\Users\artem.zyktin\projects\tenvex\src\tenvex\expressions\quat\quat_impl.hpp
; Line 26
	movups	xmm1, XMMWORD PTR [rcx]
; File C:\Users\artem.zyktin\projects\tenvex\src\tenvex\expressions\common\normalize4_impl.hpp
; Line 19
	mov	rax, rdx
; File C:\Users\artem.zyktin\projects\tenvex\src\tenvex\expressions\core\core_sse.h
; Line 125
	movaps	xmm0, xmm1
	mulps	xmm0, xmm1
; Line 126
	haddps	xmm0, xmm0
; Line 127
	haddps	xmm0, xmm0
; Line 145
	sqrtps	xmm0, xmm0
; Line 279
	divps	xmm1, xmm0
; File C:\Users\artem.zyktin\projects\tenvex\src\tenvex\expressions\common\normalize4_impl.hpp
; Line 19
	movups	XMMWORD PTR [rdx], xmm1
; Line 20
	ret	0
?eval@?$Normalize4@Uquat@tnvx@@@tnvx@@QEBA?AT__m128@@XZ ENDP ; tnvx::Normalize4<tnvx::quat>::eval
_TEXT	ENDS
; Function compile flags: /Ogtpy
;	COMDAT cg_normalize3
_TEXT	SEGMENT
va$ = 8
out$ = 16
n$ = 24
cg_normalize3 PROC					; COMDAT
; File C:\Users\artem.zyktin\projects\tenvex\src\codegen\cg_normalize.cpp
; Line 13
	xor	eax, eax
; Line 14
	test	r8, r8
	je	SHORT $LN3@cg_normali
	npad	9
$LL4@cg_normali:
; Line 15
	mov	r9, rax
	inc	rax
	add	r9, r9
; File C:\Users\artem.zyktin\projects\tenvex\src\tenvex\expressions\common\normalize3_impl.hpp
; Line 19
	movups	xmm3, XMMWORD PTR [rcx+r9*8]
; File C:\Users\artem.zyktin\projects\tenvex\src\tenvex\expressions\core\core_sse.h
; Line 114
	movaps	xmm2, xmm3
	mulps	xmm2, xmm3
; Line 116
	movaps	xmm1, xmm2
	movaps	xmm0, xmm2
	shufps	xmm0, xmm2, 85				; 00000055H
; Line 117
	movhlps	xmm2, xmm2
	addss	xmm1, xmm0
; Line 118
	addss	xmm1, xmm2
; Line 119
	shufps	xmm1, xmm1, 0
; Line 133
	sqrtps	xmm0, xmm1
; Line 157
	movaps	xmm1, xmm3
	divps	xmm1, xmm0
	blendps	xmm1, xmm3, 8
; File C:\Users\artem.zyktin\projects\tenvex\src\codegen\cg_normalize.cpp
; Line 15
	movups	XMMWORD PTR [rdx+r9*8], xmm1
	cmp	rax, r8
	jb	SHORT $LL4@cg_normali
$LN3@cg_normali:
; Line 16
	ret	0
cg_normalize3 ENDP
_TEXT	ENDS
; Function compile flags: /Ogtpy
;	COMDAT cg_normalize3_fast
_TEXT	SEGMENT
va$ = 32
out$ = 40
n$ = 48
cg_normalize3_fast PROC					; COMDAT
; File C:\Users\artem.zyktin\projects\tenvex\src\codegen\cg_normalize.cpp
; Line 19
$LN42:
	sub	rsp, 24
; Line 20
	movdqa	xmm5, XMMWORD PTR __xmm@3fc000003fc000003fc000003fc00000
	xor	r9d, r9d
	movaps	XMMWORD PTR [rsp], xmm6
	movdqa	xmm6, XMMWORD PTR __xmm@3f0000003f0000003f0000003f000000
	cmp	r8, 4
	jb	$LC32@cg_normali
	lea	r11, QWORD PTR [r8-3]
	xor	r10d, r10d
	npad	4
$LL33@cg_normali:
; Line 21
	mov	rax, r9
	add	rax, rax
; File C:\Users\artem.zyktin\projects\tenvex\src\tenvex\expressions\common\normalize3_fast_impl.hpp
; Line 19
	movups	xmm4, XMMWORD PTR [rcx+rax*8]
; File C:\Users\artem.zyktin\projects\tenvex\src\tenvex\expressions\core\core_sse.h
; Line 114
	movaps	xmm1, xmm4
	mulps	xmm1, xmm4
; Line 116
	movaps	xmm2, xmm1
	movaps	xmm0, xmm1
	shufps	xmm0, xmm1, 85				; 00000055H
	addss	xmm2, xmm0
; Line 117
	movhlps	xmm1, xmm1
; Line 118
	addss	xmm2, xmm1
; Line 215
	movaps	xmm1, xmm6
; Line 119
	shufps	xmm2, xmm2, 0
; Line 215
	mulps	xmm1, xmm2
	rsqrtps	xmm3, xmm2
	movaps	xmm2, xmm5
	movaps	xmm0, xmm3
	mulps	xmm0, xmm3
	mulps	xmm1, xmm0
	subps	xmm2, xmm1
; Line 217
	mulps	xmm2, xmm3
; Line 224
	mulps	xmm2, xmm4
	blendps	xmm2, xmm4, 8
; File C:\Users\artem.zyktin\projects\tenvex\src\codegen\cg_normalize.cpp
; Line 21
	movups	XMMWORD PTR [rdx+rax*8], xmm2
; File C:\Users\artem.zyktin\projects\tenvex\src\tenvex\expressions\common\normalize3_fast_impl.hpp
; Line 19
	movups	xmm4, XMMWORD PTR [rcx+rax*8+16]
; File C:\Users\artem.zyktin\projects\tenvex\src\tenvex\expressions\core\core_sse.h
; Line 114
	movaps	xmm1, xmm4
	mulps	xmm1, xmm4
; Line 116
	movaps	xmm2, xmm1
	movaps	xmm0, xmm1
	shufps	xmm0, xmm1, 85				; 00000055H
	addss	xmm2, xmm0
; Line 117
	movhlps	xmm1, xmm1
; Line 118
	addss	xmm2, xmm1
; Line 215
	movaps	xmm1, xmm6
; Line 119
	shufps	xmm2, xmm2, 0
; Line 215
	mulps	xmm1, xmm2
	rsqrtps	xmm3, xmm2
	movaps	xmm2, xmm5
	movaps	xmm0, xmm3
	mulps	xmm0, xmm3
	mulps	xmm1, xmm0
	subps	xmm2, xmm1
; Line 217
	mulps	xmm2, xmm3
; Line 224
	mulps	xmm2, xmm4
	blendps	xmm2, xmm4, 8
; File C:\Users\artem.zyktin\projects\tenvex\src\codegen\cg_normalize.cpp
; Line 21
	movups	XMMWORD PTR [rdx+rax*8+16], xmm2
; File C:\Users\artem.zyktin\projects\tenvex\src\tenvex\expressions\common\normalize3_fast_impl.hpp
; Line 19
	movups	xmm4, XMMWORD PTR [r10+rcx+32]
; File C:\Users\artem.zyktin\projects\tenvex\src\tenvex\expressions\core\core_sse.h
; Line 114
	movaps	xmm1, xmm4
	mulps	xmm1, xmm4
; Line 116
	movaps	xmm2, xmm1
	movaps	xmm0, xmm1
	shufps	xmm0, xmm1, 85				; 00000055H
	addss	xmm2, xmm0
; Line 117
	movhlps	xmm1, xmm1
; Line 118
	addss	xmm2, xmm1
; Line 215
	movaps	xmm1, xmm6
; Line 119
	shufps	xmm2, xmm2, 0
; Line 215
	mulps	xmm1, xmm2
	rsqrtps	xmm3, xmm2
	movaps	xmm2, xmm5
	movaps	xmm0, xmm3
	mulps	xmm0, xmm3
	mulps	xmm1, xmm0
	subps	xmm2, xmm1
; Line 217
	mulps	xmm2, xmm3
; Line 224
	mulps	xmm2, xmm4
	blendps	xmm2, xmm4, 8
; File C:\Users\artem.zyktin\projects\tenvex\src\codegen\cg_normalize.cpp
; Line 21
	movups	XMMWORD PTR [r10+rdx+32], xmm2
; File C:\Users\artem.zyktin\projects\tenvex\src\tenvex\expressions\common\normalize3_fast_impl.hpp
; Line 19
	movups	xmm4, XMMWORD PTR [r10+rcx+48]
; File C:\Users\artem.zyktin\projects\tenvex\src\tenvex\expressions\core\core_sse.h
; Line 114
	movaps	xmm1, xmm4
	mulps	xmm1, xmm4
; Line 116
	movaps	xmm2, xmm1
	movaps	xmm0, xmm1
	shufps	xmm0, xmm1, 85				; 00000055H
; Line 117
	movhlps	xmm1, xmm1
	addss	xmm2, xmm0
; Line 118
	addss	xmm2, xmm1
; Line 215
	movaps	xmm1, xmm6
; Line 119
	shufps	xmm2, xmm2, 0
; Line 213
	rsqrtps	xmm3, xmm2
; Line 215
	mulps	xmm1, xmm2
	movaps	xmm0, xmm3
	movaps	xmm2, xmm5
	mulps	xmm0, xmm3
; File C:\Users\artem.zyktin\projects\tenvex\src\codegen\cg_normalize.cpp
; Line 21
	add	r9, 4
; File C:\Users\artem.zyktin\projects\tenvex\src\tenvex\expressions\core\core_sse.h
; Line 215
	mulps	xmm1, xmm0
	subps	xmm2, xmm1
; Line 217
	mulps	xmm2, xmm3
; Line 224
	mulps	xmm2, xmm4
	blendps	xmm2, xmm4, 8
; File C:\Users\artem.zyktin\projects\tenvex\src\codegen\cg_normalize.cpp
; Line 21
	movups	XMMWORD PTR [r10+rdx+48], xmm2
	add	r10, 64					; 00000040H
	cmp	r9, r11
	jb	$LL33@cg_normali
$LC32@cg_normali:
; Line 20
	cmp	r9, r8
	jae	SHORT $LN31@cg_normali
$LC4@cg_normali:
; Line 21
	mov	rax, r9
	inc	r9
	add	rax, rax
; File C:\Users\artem.zyktin\projects\tenvex\src\tenvex\expressions\common\normalize3_fast_impl.hpp
; Line 19
	movups	xmm4, XMMWORD PTR [rcx+rax*8]
; File C:\Users\artem.zyktin\projects\tenvex\src\tenvex\expressions\core\core_sse.h
; Line 114
	movaps	xmm1, xmm4
	mulps	xmm1, xmm4
; Line 116
	movaps	xmm2, xmm1
	movaps	xmm0, xmm1
	shufps	xmm0, xmm1, 85				; 00000055H
; Line 117
	movhlps	xmm1, xmm1
	addss	xmm2, xmm0
; Line 118
	addss	xmm2, xmm1
; Line 215
	movaps	xmm1, xmm6
; Line 119
	shufps	xmm2, xmm2, 0
; Line 213
	rsqrtps	xmm3, xmm2
; Line 215
	mulps	xmm1, xmm2
	movaps	xmm2, xmm5
	movaps	xmm0, xmm3
	mulps	xmm0, xmm3
	mulps	xmm1, xmm0
	subps	xmm2, xmm1
; Line 217
	mulps	xmm2, xmm3
; Line 224
	mulps	xmm2, xmm4
	blendps	xmm2, xmm4, 8
; File C:\Users\artem.zyktin\projects\tenvex\src\codegen\cg_normalize.cpp
; Line 21
	movups	XMMWORD PTR [rdx+rax*8], xmm2
	cmp	r9, r8
	jb	SHORT $LC4@cg_normali
$LN31@cg_normali:
; Line 22
	movaps	xmm6, XMMWORD PTR [rsp]
	add	rsp, 24
	ret	0
cg_normalize3_fast ENDP
_TEXT	ENDS
; Function compile flags: /Ogtpy
;	COMDAT ??$normalize3_fast@Uvec4@tnvx@@@tnvx@@YA?AU?$Normalize3Fast@Uvec4@tnvx@@@0@AEBUvec4@0@@Z
_TEXT	SEGMENT
__$ReturnUdt$ = 8
e$ = 16
??$normalize3_fast@Uvec4@tnvx@@@tnvx@@YA?AU?$Normalize3Fast@Uvec4@tnvx@@@0@AEBUvec4@0@@Z PROC ; tnvx::normalize3_fast<tnvx::vec4>, COMDAT
; File C:\Users\artem.zyktin\projects\tenvex\src\tenvex\expressions\common\normalize3_fast_impl.hpp
; Line 11
	movaps	xmm0, XMMWORD PTR [rdx]
; Line 26
	mov	rax, rcx
; Line 11
	movups	XMMWORD PTR [rcx], xmm0
; Line 27
	ret	0
??$normalize3_fast@Uvec4@tnvx@@@tnvx@@YA?AU?$Normalize3Fast@Uvec4@tnvx@@@0@AEBUvec4@0@@Z ENDP ; tnvx::normalize3_fast<tnvx::vec4>
_TEXT	ENDS
; Function compile flags: /Ogtpy
;	COMDAT ??0?$Normalize3Fast@Uvec4@tnvx@@@tnvx@@QEAA@AEIBUvec4@1@@Z
_TEXT	SEGMENT
this$ = 8
e$ = 16
??0?$Normalize3Fast@Uvec4@tnvx@@@tnvx@@QEAA@AEIBUvec4@1@@Z PROC ; tnvx::Normalize3Fast<tnvx::vec4>::Normalize3Fast<tnvx::vec4>, COMDAT
; File C:\Users\artem.zyktin\projects\tenvex\src\tenvex\expressions\common\normalize3_fast_impl.hpp
; Line 11
	movaps	xmm0, XMMWORD PTR [rdx]
; Line 13
	mov	rax, rcx
	movups	XMMWORD PTR [rcx], xmm0
	ret	0
??0?$Normalize3Fast@Uvec4@tnvx@@@tnvx@@QEAA@AEIBUvec4@1@@Z ENDP ; tnvx::Normalize3Fast<tnvx::vec4>::Normalize3Fast<tnvx::vec4>
_TEXT	ENDS
; Function compile flags: /Ogtpy
;	COMDAT ?eval@?$Normalize3Fast@Uvec4@tnvx@@@tnvx@@QEBA?AT__m128@@XZ
_TEXT	SEGMENT
this$ = 8
__$ReturnUdt$ = 16
?eval@?$Normalize3Fast@Uvec4@tnvx@@@tnvx@@QEBA?AT__m128@@XZ PROC ; tnvx::Normalize3Fast<tnvx::vec4>::eval, COMDAT
; File C:\Users\artem.zyktin\projects\tenvex\src\tenvex\expressions\common\normalize3_fast_impl.hpp
; File C:\Users\artem.zyktin\projects\tenvex\src\tenvex\expressions\vec\vec4_impl.hpp
; Line 17
	movups	xmm4, XMMWORD PTR [rcx]
; File C:\Users\artem.zyktin\projects\tenvex\src\tenvex\expressions\common\normalize3_fast_impl.hpp
; Line 19
	mov	rax, rdx
; File C:\Users\artem.zyktin\projects\tenvex\src\tenvex\expressions\core\core_sse.h
; Line 114
	movaps	xmm1, xmm4
	mulps	xmm1, xmm4
; Line 116
	movaps	xmm2, xmm1
	movaps	xmm0, xmm1
	shufps	xmm0, xmm1, 85				; 00000055H
	addss	xmm2, xmm0
; Line 117
	movhlps	xmm1, xmm1
; Line 118
	addss	xmm2, xmm1
; Line 215
	movdqa	xmm1, XMMWORD PTR __xmm@3f0000003f0000003f0000003f000000
; Line 119
	shufps	xmm2, xmm2, 0
; Line 213
	rsqrtps	xmm3, xmm2
; Line 215
	mulps	xmm1, xmm2
	movdqa	xmm2, XMMWORD PTR __xmm@3fc000003fc000003fc000003fc00000
	movaps	xmm0, xmm3
	mulps	xmm0, xmm3
	mulps	xmm1, xmm0
	subps	xmm2, xmm1
; Line 217
	mulps	xmm2, xmm3
; Line 224
	mulps	xmm2, xmm4
	blendps	xmm2, xmm4, 8
; File C:\Users\artem.zyktin\projects\tenvex\src\tenvex\expressions\common\normalize3_fast_impl.hpp
; Line 19
	movups	XMMWORD PTR [rdx], xmm2
; Line 20
	ret	0
?eval@?$Normalize3Fast@Uvec4@tnvx@@@tnvx@@QEBA?AT__m128@@XZ ENDP ; tnvx::Normalize3Fast<tnvx::vec4>::eval
_TEXT	ENDS
; Function compile flags: /Ogtpy
;	COMDAT cg_normalize4
_TEXT	SEGMENT
qa$ = 8
out$ = 16
n$ = 24
cg_normalize4 PROC					; COMDAT
; File C:\Users\artem.zyktin\projects\tenvex\src\codegen\cg_normalize.cpp
; Line 25
	xor	eax, eax
; Line 26
	test	r8, r8
	je	SHORT $LN3@cg_normali
	npad	9
$LL4@cg_normali:
; Line 27
	mov	r9, rax
	inc	rax
	add	r9, r9
; File C:\Users\artem.zyktin\projects\tenvex\src\tenvex\expressions\common\normalize4_impl.hpp
; Line 19
	movups	xmm1, XMMWORD PTR [rcx+r9*8]
; File C:\Users\artem.zyktin\projects\tenvex\src\tenvex\expressions\core\core_sse.h
; Line 125
	movaps	xmm0, xmm1
	mulps	xmm0, xmm1
; Line 126
	haddps	xmm0, xmm0
; Line 127
	haddps	xmm0, xmm0
; Line 145
	sqrtps	xmm0, xmm0
; Line 279
	divps	xmm1, xmm0
; File C:\Users\artem.zyktin\projects\tenvex\src\codegen\cg_normalize.cpp
; Line 27
	movups	XMMWORD PTR [rdx+r9*8], xmm1
	cmp	rax, r8
	jb	SHORT $LL4@cg_normali
$LN3@cg_normali:
; Line 28
	ret	0
cg_normalize4 ENDP
_TEXT	ENDS
END
