; Microsoft (R) C/C++ Optimizing Compiler Version 19.51.36248 for x64
; cl /nologo /c /O2 /std:c++20 /EHsc /W3 /Isrc\tenvex /FA cg_reductions.cpp
; Listing generated by Microsoft (R) Optimizing Compiler Version 19.51.36248.0 

include listing.inc

INCLUDELIB LIBCMT
INCLUDELIB OLDNAMES

PUBLIC	?to_float@detail@tnvx@@YAMT__m128@@@Z		; tnvx::detail::to_float
PUBLIC	?dot3@detail@tnvx@@YA?AT__m128@@T3@0@Z		; tnvx::detail::dot3
PUBLIC	?dot4@detail@tnvx@@YA?AT__m128@@T3@0@Z		; tnvx::detail::dot4
PUBLIC	?magnitude3@detail@tnvx@@YA?AT__m128@@T3@@Z	; tnvx::detail::magnitude3
PUBLIC	?magnitude3_sq@detail@tnvx@@YA?AT__m128@@T3@@Z	; tnvx::detail::magnitude3_sq
PUBLIC	?eval@vec4@tnvx@@QEBA?AT__m128@@XZ		; tnvx::vec4::eval
PUBLIC	??$dot3@Uvec4@tnvx@@U12@@tnvx@@YA?AU?$Dot3@Uvec4@tnvx@@U12@@0@AEBUvec4@0@0@Z ; tnvx::dot3<tnvx::vec4,tnvx::vec4>
PUBLIC	??0?$Dot3@Uvec4@tnvx@@U12@@tnvx@@QEAA@AEIBUvec4@1@0@Z ; tnvx::Dot3<tnvx::vec4,tnvx::vec4>::Dot3<tnvx::vec4,tnvx::vec4>
PUBLIC	?eval@?$Dot3@Uvec4@tnvx@@U12@@tnvx@@QEBA?AT__m128@@XZ ; tnvx::Dot3<tnvx::vec4,tnvx::vec4>::eval
PUBLIC	??B?$Dot3@Uvec4@tnvx@@U12@@tnvx@@QEBAMXZ	; tnvx::Dot3<tnvx::vec4,tnvx::vec4>::operator float
PUBLIC	??$magnitude3@Uvec4@tnvx@@@tnvx@@YA?AU?$Magn3@Uvec4@tnvx@@@0@AEBUvec4@0@@Z ; tnvx::magnitude3<tnvx::vec4>
PUBLIC	??0?$Magn3@Uvec4@tnvx@@@tnvx@@QEAA@AEIBUvec4@1@@Z ; tnvx::Magn3<tnvx::vec4>::Magn3<tnvx::vec4>
PUBLIC	?eval@?$Magn3@Uvec4@tnvx@@@tnvx@@QEBA?AT__m128@@XZ ; tnvx::Magn3<tnvx::vec4>::eval
PUBLIC	??B?$Magn3@Uvec4@tnvx@@@tnvx@@QEBAMXZ		; tnvx::Magn3<tnvx::vec4>::operator float
PUBLIC	?operand@?$Magn3@Uvec4@tnvx@@@tnvx@@QEBAAEBUvec4@2@XZ ; tnvx::Magn3<tnvx::vec4>::operand
PUBLIC	cg_dot3
PUBLIC	cg_dot4
PUBLIC	??$dot4@Uvec4@tnvx@@U12@@tnvx@@YA?AU?$Dot4@Uvec4@tnvx@@U12@@0@AEBUvec4@0@0@Z ; tnvx::dot4<tnvx::vec4,tnvx::vec4>
PUBLIC	??0?$Dot4@Uvec4@tnvx@@U12@@tnvx@@QEAA@AEIBUvec4@1@0@Z ; tnvx::Dot4<tnvx::vec4,tnvx::vec4>::Dot4<tnvx::vec4,tnvx::vec4>
PUBLIC	?eval@?$Dot4@Uvec4@tnvx@@U12@@tnvx@@QEBA?AT__m128@@XZ ; tnvx::Dot4<tnvx::vec4,tnvx::vec4>::eval
PUBLIC	??B?$Dot4@Uvec4@tnvx@@U12@@tnvx@@QEBAMXZ	; tnvx::Dot4<tnvx::vec4,tnvx::vec4>::operator float
PUBLIC	cg_magnitude3
PUBLIC	cg_magnitude3_sq
PUBLIC	??$magnitude3_sq@Uvec4@tnvx@@@tnvx@@YA?AU?$Magn3Sq@Uvec4@tnvx@@@0@AEBUvec4@0@@Z ; tnvx::magnitude3_sq<tnvx::vec4>
PUBLIC	??0?$Magn3Sq@Uvec4@tnvx@@@tnvx@@QEAA@AEIBUvec4@1@@Z ; tnvx::Magn3Sq<tnvx::vec4>::Magn3Sq<tnvx::vec4>
PUBLIC	?eval@?$Magn3Sq@Uvec4@tnvx@@@tnvx@@QEBA?AT__m128@@XZ ; tnvx::Magn3Sq<tnvx::vec4>::eval
PUBLIC	??B?$Magn3Sq@Uvec4@tnvx@@@tnvx@@QEBAMXZ		; tnvx::Magn3Sq<tnvx::vec4>::operator float
PUBLIC	cg_mag3_lt_mag3
PUBLIC	??$?MUvec4@tnvx@@U01@@tnvx@@YA_NAEBU?$Magn3@Uvec4@tnvx@@@0@0@Z ; tnvx::operator<<tnvx::vec4,tnvx::vec4>
PUBLIC	cg_mag3_lt_scalar
PUBLIC	??$?MUvec4@tnvx@@M@tnvx@@YA_NAEBU?$Magn3@Uvec4@tnvx@@@0@M@Z ; tnvx::operator<<tnvx::vec4,float>
EXTRN	memset:PROC
EXTRN	_fltused:DWORD
;	COMDAT pdata
pdata	SEGMENT
$pdata$cg_dot3 DD imagerel $LN44
	DD	imagerel $LN44+17
	DD	imagerel $unwind$cg_dot3
pdata	ENDS
;	COMDAT pdata
pdata	SEGMENT
$pdata$0$cg_dot3 DD imagerel $LN44+17
	DD	imagerel $LN44+212
	DD	imagerel $chain$0$cg_dot3
pdata	ENDS
;	COMDAT pdata
pdata	SEGMENT
$pdata$1$cg_dot3 DD imagerel $LN44+212
	DD	imagerel $LN44+271
	DD	imagerel $chain$1$cg_dot3
pdata	ENDS
;	COMDAT pdata
pdata	SEGMENT
$pdata$cg_dot4 DD imagerel $LN44
	DD	imagerel $LN44+17
	DD	imagerel $unwind$cg_dot4
pdata	ENDS
;	COMDAT pdata
pdata	SEGMENT
$pdata$0$cg_dot4 DD imagerel $LN44+17
	DD	imagerel $LN44+156
	DD	imagerel $chain$0$cg_dot4
pdata	ENDS
;	COMDAT pdata
pdata	SEGMENT
$pdata$1$cg_dot4 DD imagerel $LN44+156
	DD	imagerel $LN44+202
	DD	imagerel $chain$1$cg_dot4
pdata	ENDS
;	COMDAT pdata
pdata	SEGMENT
$pdata$cg_mag3_lt_mag3 DD imagerel $LN82
	DD	imagerel $LN82+20
	DD	imagerel $unwind$cg_mag3_lt_mag3
pdata	ENDS
;	COMDAT pdata
pdata	SEGMENT
$pdata$1$cg_mag3_lt_mag3 DD imagerel $LN82+20
	DD	imagerel $LN82+357
	DD	imagerel $chain$1$cg_mag3_lt_mag3
pdata	ENDS
;	COMDAT pdata
pdata	SEGMENT
$pdata$2$cg_mag3_lt_mag3 DD imagerel $LN82+357
	DD	imagerel $LN82+448
	DD	imagerel $chain$2$cg_mag3_lt_mag3
pdata	ENDS
;	COMDAT xdata
xdata	SEGMENT
$chain$2$cg_mag3_lt_mag3 DD 021H
	DD	imagerel $LN82
	DD	imagerel $LN82+20
	DD	imagerel $unwind$cg_mag3_lt_mag3
xdata	ENDS
;	COMDAT xdata
xdata	SEGMENT
$chain$1$cg_mag3_lt_mag3 DD 040b21H
	DD	0740bH
	DD	023405H
	DD	imagerel $LN82
	DD	imagerel $LN82+20
	DD	imagerel $unwind$cg_mag3_lt_mag3
xdata	ENDS
;	COMDAT xdata
xdata	SEGMENT
$unwind$cg_mag3_lt_mag3 DD 010401H
	DD	0204H
xdata	ENDS
;	COMDAT xdata
xdata	SEGMENT
$chain$1$cg_dot4 DD 021H
	DD	imagerel $LN44
	DD	imagerel $LN44+17
	DD	imagerel $unwind$cg_dot4
xdata	ENDS
;	COMDAT xdata
xdata	SEGMENT
$chain$0$cg_dot4 DD 020421H
	DD	03404H
	DD	imagerel $LN44
	DD	imagerel $LN44+17
	DD	imagerel $unwind$cg_dot4
xdata	ENDS
;	COMDAT xdata
xdata	SEGMENT
$unwind$cg_dot4 DD 010401H
	DD	0204H
xdata	ENDS
;	COMDAT xdata
xdata	SEGMENT
$chain$1$cg_dot3 DD 021H
	DD	imagerel $LN44
	DD	imagerel $LN44+17
	DD	imagerel $unwind$cg_dot3
xdata	ENDS
;	COMDAT xdata
xdata	SEGMENT
$chain$0$cg_dot3 DD 020421H
	DD	03404H
	DD	imagerel $LN44
	DD	imagerel $LN44+17
	DD	imagerel $unwind$cg_dot3
xdata	ENDS
;	COMDAT xdata
xdata	SEGMENT
$unwind$cg_dot3 DD 010401H
	DD	0204H
xdata	ENDS
; Function compile flags: /Ogtpy
;	COMDAT ?to_float@detail@tnvx@@YAMT__m128@@@Z
_TEXT	SEGMENT
v$ = 8
?to_float@detail@tnvx@@YAMT__m128@@@Z PROC		; tnvx::detail::to_float, COMDAT
; File C:\Users\artem.zyktin\projects\tenvex\src\tenvex\expressions\core\core_sse.h
; Line 39
	movss	xmm0, DWORD PTR [rcx]
; Line 40
	ret	0
?to_float@detail@tnvx@@YAMT__m128@@@Z ENDP		; tnvx::detail::to_float
_TEXT	ENDS
; Function compile flags: /Ogtpy
;	COMDAT ?dot3@detail@tnvx@@YA?AT__m128@@T3@0@Z
_TEXT	SEGMENT
l$ = 8
r$ = 16
?dot3@detail@tnvx@@YA?AT__m128@@T3@0@Z PROC		; tnvx::detail::dot3, COMDAT
; File C:\Users\artem.zyktin\projects\tenvex\src\tenvex\expressions\core\core_sse.h
; Line 114
	movups	xmm2, XMMWORD PTR [rcx]
	mulps	xmm2, XMMWORD PTR [rdx]
; Line 116
	movaps	xmm0, xmm2
	movaps	xmm1, xmm2
	shufps	xmm1, xmm2, 85				; 00000055H
	addss	xmm0, xmm1
; Line 117
	movhlps	xmm2, xmm2
; Line 118
	addss	xmm0, xmm2
; Line 119
	shufps	xmm0, xmm0, 0
; Line 120
	ret	0
?dot3@detail@tnvx@@YA?AT__m128@@T3@0@Z ENDP		; tnvx::detail::dot3
_TEXT	ENDS
; Function compile flags: /Ogtpy
;	COMDAT ?dot4@detail@tnvx@@YA?AT__m128@@T3@0@Z
_TEXT	SEGMENT
l$ = 8
r$ = 16
?dot4@detail@tnvx@@YA?AT__m128@@T3@0@Z PROC		; tnvx::detail::dot4, COMDAT
; File C:\Users\artem.zyktin\projects\tenvex\src\tenvex\expressions\core\core_sse.h
; Line 125
	movups	xmm0, XMMWORD PTR [rcx]
	mulps	xmm0, XMMWORD PTR [rdx]
; Line 126
	haddps	xmm0, xmm0
; Line 127
	haddps	xmm0, xmm0
; Line 128
	ret	0
?dot4@detail@tnvx@@YA?AT__m128@@T3@0@Z ENDP		; tnvx::detail::dot4
_TEXT	ENDS
; Function compile flags: /Ogtpy
;	COMDAT ?magnitude3@detail@tnvx@@YA?AT__m128@@T3@@Z
_TEXT	SEGMENT
v$ = 8
?magnitude3@detail@tnvx@@YA?AT__m128@@T3@@Z PROC	; tnvx::detail::magnitude3, COMDAT
; File C:\Users\artem.zyktin\projects\tenvex\src\tenvex\expressions\core\core_sse.h
; Line 133
	movups	xmm2, XMMWORD PTR [rcx]
; Line 114
	mulps	xmm2, xmm2
; Line 116
	movaps	xmm1, xmm2
	movaps	xmm0, xmm2
	shufps	xmm0, xmm2, 85				; 00000055H
	addss	xmm1, xmm0
; Line 117
	movhlps	xmm2, xmm2
; Line 118
	addss	xmm1, xmm2
; Line 119
	shufps	xmm1, xmm1, 0
; Line 133
	sqrtps	xmm0, xmm1
; Line 134
	ret	0
?magnitude3@detail@tnvx@@YA?AT__m128@@T3@@Z ENDP	; tnvx::detail::magnitude3
_TEXT	ENDS
; Function compile flags: /Ogtpy
;	COMDAT ?magnitude3_sq@detail@tnvx@@YA?AT__m128@@T3@@Z
_TEXT	SEGMENT
v$ = 8
?magnitude3_sq@detail@tnvx@@YA?AT__m128@@T3@@Z PROC	; tnvx::detail::magnitude3_sq, COMDAT
; File C:\Users\artem.zyktin\projects\tenvex\src\tenvex\expressions\core\core_sse.h
; Line 139
	movups	xmm2, XMMWORD PTR [rcx]
; Line 114
	mulps	xmm2, xmm2
; Line 116
	movaps	xmm0, xmm2
	movaps	xmm1, xmm2
	shufps	xmm1, xmm2, 85				; 00000055H
	addss	xmm0, xmm1
; Line 117
	movhlps	xmm2, xmm2
; Line 118
	addss	xmm0, xmm2
; Line 119
	shufps	xmm0, xmm0, 0
; Line 140
	ret	0
?magnitude3_sq@detail@tnvx@@YA?AT__m128@@T3@@Z ENDP	; tnvx::detail::magnitude3_sq
_TEXT	ENDS
; Function compile flags: /Ogtpy
;	COMDAT ?eval@vec4@tnvx@@QEBA?AT__m128@@XZ
_TEXT	SEGMENT
this$ = 8
__$ReturnUdt$ = 16
?eval@vec4@tnvx@@QEBA?AT__m128@@XZ PROC			; tnvx::vec4::eval, COMDAT
; File C:\Users\artem.zyktin\projects\tenvex\src\tenvex\expressions\vec\vec4_impl.hpp
; Line 17
	movups	xmm0, XMMWORD PTR [rcx]
	mov	rax, rdx
	movups	XMMWORD PTR [rdx], xmm0
; Line 18
	ret	0
?eval@vec4@tnvx@@QEBA?AT__m128@@XZ ENDP			; tnvx::vec4::eval
_TEXT	ENDS
; Function compile flags: /Ogtpy
;	COMDAT ??$dot3@Uvec4@tnvx@@U12@@tnvx@@YA?AU?$Dot3@Uvec4@tnvx@@U12@@0@AEBUvec4@0@0@Z
_TEXT	SEGMENT
__$ReturnUdt$ = 8
l$ = 16
r$ = 24
??$dot3@Uvec4@tnvx@@U12@@tnvx@@YA?AU?$Dot3@Uvec4@tnvx@@U12@@0@AEBUvec4@0@0@Z PROC ; tnvx::dot3<tnvx::vec4,tnvx::vec4>, COMDAT
; File C:\Users\artem.zyktin\projects\tenvex\src\tenvex\expressions\vec\dot3_impl.hpp
; Line 11
	movaps	xmm0, XMMWORD PTR [rdx]
; Line 34
	mov	rax, rcx
; Line 12
	movaps	xmm1, XMMWORD PTR [r8]
	movups	XMMWORD PTR [rcx], xmm0
	movups	XMMWORD PTR [rcx+16], xmm1
; Line 35
	ret	0
??$dot3@Uvec4@tnvx@@U12@@tnvx@@YA?AU?$Dot3@Uvec4@tnvx@@U12@@0@AEBUvec4@0@0@Z ENDP ; tnvx::dot3<tnvx::vec4,tnvx::vec4>
_TEXT	ENDS
; Function compile flags: /Ogtpy
;	COMDAT ??0?$Dot3@Uvec4@tnvx@@U12@@tnvx@@QEAA@AEIBUvec4@1@0@Z
_TEXT	SEGMENT
this$ = 8
l$ = 16
r$ = 24
??0?$Dot3@Uvec4@tnvx@@U12@@tnvx@@QEAA@AEIBUvec4@1@0@Z PROC ; tnvx::Dot3<tnvx::vec4,tnvx::vec4>::Dot3<tnvx::vec4,tnvx::vec4>, COMDAT
; File C:\Users\artem.zyktin\projects\tenvex\src\tenvex\expressions\vec\dot3_impl.hpp
; Line 11
	movaps	xmm0, XMMWORD PTR [rdx]
; Line 14
	mov	rax, rcx
	movaps	xmm1, XMMWORD PTR [r8]
	movups	XMMWORD PTR [rcx], xmm0
	movups	XMMWORD PTR [rcx+16], xmm1
	ret	0
??0?$Dot3@Uvec4@tnvx@@U12@@tnvx@@QEAA@AEIBUvec4@1@0@Z ENDP ; tnvx::Dot3<tnvx::vec4,tnvx::vec4>::Dot3<tnvx::vec4,tnvx::vec4>
_TEXT	ENDS
; Function compile flags: /Ogtpy
;	COMDAT ?eval@?$Dot3@Uvec4@tnvx@@U12@@tnvx@@QEBA?AT__m128@@XZ
_TEXT	SEGMENT
this$ = 8
__$ReturnUdt$ = 16
?eval@?$Dot3@Uvec4@tnvx@@U12@@tnvx@@QEBA?AT__m128@@XZ PROC ; tnvx::Dot3<tnvx::vec4,tnvx::vec4>::eval, COMDAT
; File C:\Users\artem.zyktin\projects\tenvex\src\tenvex\expressions\vec\dot3_impl.hpp
; File C:\Users\artem.zyktin\projects\tenvex\src\tenvex\expressions\core\core_sse.h
; Line 114
	movups	xmm2, XMMWORD PTR [rcx+16]
; File C:\Users\artem.zyktin\projects\tenvex\src\tenvex\expressions\vec\dot3_impl.hpp
; Line 20
	mov	rax, rdx
; File C:\Users\artem.zyktin\projects\tenvex\src\tenvex\expressions\core\core_sse.h
; Line 114
	mulps	xmm2, XMMWORD PTR [rcx]
; Line 116
	movaps	xmm1, xmm2
	movaps	xmm0, xmm2
	shufps	xmm0, xmm2, 85				; 00000055H
	addss	xmm1, xmm0
; Line 117
	movhlps	xmm2, xmm2
; Line 118
	addss	xmm1, xmm2
; Line 119
	shufps	xmm1, xmm1, 0
; File C:\Users\artem.zyktin\projects\tenvex\src\tenvex\expressions\vec\dot3_impl.hpp
; Line 20
	movups	XMMWORD PTR [rdx], xmm1
; Line 21
	ret	0
?eval@?$Dot3@Uvec4@tnvx@@U12@@tnvx@@QEBA?AT__m128@@XZ ENDP ; tnvx::Dot3<tnvx::vec4,tnvx::vec4>::eval
_TEXT	ENDS
; Function compile flags: /Ogtpy
;	COMDAT ??B?$Dot3@Uvec4@tnvx@@U12@@tnvx@@QEBAMXZ
_TEXT	SEGMENT
this$ = 8
??B?$Dot3@Uvec4@tnvx@@U12@@tnvx@@QEBAMXZ PROC		; tnvx::Dot3<tnvx::vec4,tnvx::vec4>::operator float, COMDAT
; File C:\Users\artem.zyktin\projects\tenvex\src\tenvex\expressions\vec\dot3_impl.hpp
; File C:\Users\artem.zyktin\projects\tenvex\src\tenvex\expressions\core\core_sse.h
; Line 114
	movups	xmm2, XMMWORD PTR [rcx+16]
	mulps	xmm2, XMMWORD PTR [rcx]
; Line 115
	movaps	xmm1, xmm2
; Line 116
	movaps	xmm0, xmm2
	shufps	xmm1, xmm2, 85				; 00000055H
	addss	xmm0, xmm1
; Line 117
	movhlps	xmm2, xmm2
; Line 118
	addss	xmm0, xmm2
; File C:\Users\artem.zyktin\projects\tenvex\src\tenvex\expressions\vec\dot3_impl.hpp
; Line 28
	ret	0
??B?$Dot3@Uvec4@tnvx@@U12@@tnvx@@QEBAMXZ ENDP		; tnvx::Dot3<tnvx::vec4,tnvx::vec4>::operator float
_TEXT	ENDS
; Function compile flags: /Ogtpy
;	COMDAT ??$magnitude3@Uvec4@tnvx@@@tnvx@@YA?AU?$Magn3@Uvec4@tnvx@@@0@AEBUvec4@0@@Z
_TEXT	SEGMENT
__$ReturnUdt$ = 8
e$ = 16
??$magnitude3@Uvec4@tnvx@@@tnvx@@YA?AU?$Magn3@Uvec4@tnvx@@@0@AEBUvec4@0@@Z PROC ; tnvx::magnitude3<tnvx::vec4>, COMDAT
; File C:\Users\artem.zyktin\projects\tenvex\src\tenvex\expressions\vec\magnitude3_impl.hpp
; Line 12
	movaps	xmm0, XMMWORD PTR [rdx]
; Line 40
	mov	rax, rcx
; Line 12
	movups	XMMWORD PTR [rcx], xmm0
; Line 41
	ret	0
??$magnitude3@Uvec4@tnvx@@@tnvx@@YA?AU?$Magn3@Uvec4@tnvx@@@0@AEBUvec4@0@@Z ENDP ; tnvx::magnitude3<tnvx::vec4>
_TEXT	ENDS
; Function compile flags: /Ogtpy
;	COMDAT ??0?$Magn3@Uvec4@tnvx@@@tnvx@@QEAA@AEIBUvec4@1@@Z
_TEXT	SEGMENT
this$ = 8
e$ = 16
??0?$Magn3@Uvec4@tnvx@@@tnvx@@QEAA@AEIBUvec4@1@@Z PROC	; tnvx::Magn3<tnvx::vec4>::Magn3<tnvx::vec4>, COMDAT
; File C:\Users\artem.zyktin\projects\tenvex\src\tenvex\expressions\vec\magnitude3_impl.hpp
; Line 12
	movaps	xmm0, XMMWORD PTR [rdx]
; Line 14
	mov	rax, rcx
	movups	XMMWORD PTR [rcx], xmm0
	ret	0
??0?$Magn3@Uvec4@tnvx@@@tnvx@@QEAA@AEIBUvec4@1@@Z ENDP	; tnvx::Magn3<tnvx::vec4>::Magn3<tnvx::vec4>
_TEXT	ENDS
; Function compile flags: /Ogtpy
;	COMDAT ?eval@?$Magn3@Uvec4@tnvx@@@tnvx@@QEBA?AT__m128@@XZ
_TEXT	SEGMENT
this$ = 8
__$ReturnUdt$ = 16
?eval@?$Magn3@Uvec4@tnvx@@@tnvx@@QEBA?AT__m128@@XZ PROC	; tnvx::Magn3<tnvx::vec4>::eval, COMDAT
; File C:\Users\artem.zyktin\projects\tenvex\src\tenvex\expressions\vec\magnitude3_impl.hpp
; File C:\Users\artem.zyktin\projects\tenvex\src\tenvex\expressions\vec\vec4_impl.hpp
; Line 17
	movups	xmm2, XMMWORD PTR [rcx]
; File C:\Users\artem.zyktin\projects\tenvex\src\tenvex\expressions\vec\magnitude3_impl.hpp
; Line 20
	mov	rax, rdx
; File C:\Users\artem.zyktin\projects\tenvex\src\tenvex\expressions\core\core_sse.h
; Line 114
	mulps	xmm2, xmm2
; Line 116
	movaps	xmm1, xmm2
	movaps	xmm0, xmm2
	shufps	xmm0, xmm2, 85				; 00000055H
	addss	xmm1, xmm0
; Line 117
	movhlps	xmm2, xmm2
; Line 118
	addss	xmm1, xmm2
; Line 119
	shufps	xmm1, xmm1, 0
; Line 133
	sqrtps	xmm0, xmm1
; File C:\Users\artem.zyktin\projects\tenvex\src\tenvex\expressions\vec\magnitude3_impl.hpp
; Line 20
	movups	XMMWORD PTR [rdx], xmm0
; Line 21
	ret	0
?eval@?$Magn3@Uvec4@tnvx@@@tnvx@@QEBA?AT__m128@@XZ ENDP	; tnvx::Magn3<tnvx::vec4>::eval
_TEXT	ENDS
; Function compile flags: /Ogtpy
;	COMDAT ??B?$Magn3@Uvec4@tnvx@@@tnvx@@QEBAMXZ
_TEXT	SEGMENT
this$ = 8
??B?$Magn3@Uvec4@tnvx@@@tnvx@@QEBAMXZ PROC		; tnvx::Magn3<tnvx::vec4>::operator float, COMDAT
; File C:\Users\artem.zyktin\projects\tenvex\src\tenvex\expressions\vec\magnitude3_impl.hpp
; File C:\Users\artem.zyktin\projects\tenvex\src\tenvex\expressions\vec\vec4_impl.hpp
; Line 17
	movups	xmm2, XMMWORD PTR [rcx]
; File C:\Users\artem.zyktin\projects\tenvex\src\tenvex\expressions\core\core_sse.h
; Line 114
	mulps	xmm2, xmm2
; Line 116
	movaps	xmm1, xmm2
	movaps	xmm0, xmm2
	shufps	xmm0, xmm2, 85				; 00000055H
	addss	xmm1, xmm0
; Line 117
	movhlps	xmm2, xmm2
; Line 118
	addss	xmm1, xmm2
; Line 119
	shufps	xmm1, xmm1, 0
; Line 133
	sqrtps	xmm0, xmm1
; File C:\Users\artem.zyktin\projects\tenvex\src\tenvex\expressions\vec\magnitude3_impl.hpp
; Line 28
	ret	0
??B?$Magn3@Uvec4@tnvx@@@tnvx@@QEBAMXZ ENDP		; tnvx::Magn3<tnvx::vec4>::operator float
_TEXT	ENDS
; Function compile flags: /Ogtpy
;	COMDAT ?operand@?$Magn3@Uvec4@tnvx@@@tnvx@@QEBAAEBUvec4@2@XZ
_TEXT	SEGMENT
this$ = 8
?operand@?$Magn3@Uvec4@tnvx@@@tnvx@@QEBAAEBUvec4@2@XZ PROC ; tnvx::Magn3<tnvx::vec4>::operand, COMDAT
; File C:\Users\artem.zyktin\projects\tenvex\src\tenvex\expressions\vec\magnitude3_impl.hpp
; Line 33
	mov	rax, rcx
; Line 34
	ret	0
?operand@?$Magn3@Uvec4@tnvx@@@tnvx@@QEBAAEBUvec4@2@XZ ENDP ; tnvx::Magn3<tnvx::vec4>::operand
_TEXT	ENDS
; Function compile flags: /Ogtpy
;	COMDAT cg_dot3
_TEXT	SEGMENT
va$ = 16
vb$ = 24
out$ = 32
n$ = 40
cg_dot3	PROC						; COMDAT
; File C:\Users\artem.zyktin\projects\tenvex\src\codegen\cg_reductions.cpp
; Line 14
$LN44:
	sub	rsp, 8
	xor	r10d, r10d
; Line 15
	cmp	r9, 4
	jb	$LC34@cg_dot3
	mov	QWORD PTR [rsp], rbx
	xor	r11d, r11d
	lea	rbx, QWORD PTR [r9-3]
	npad	4
$LL35@cg_dot3:
; Line 16
	mov	rax, r10
	add	rax, rax
; File C:\Users\artem.zyktin\projects\tenvex\src\tenvex\expressions\vec\dot3_impl.hpp
; Line 11
	movups	xmm2, XMMWORD PTR [rcx+rax*8]
; File C:\Users\artem.zyktin\projects\tenvex\src\tenvex\expressions\core\core_sse.h
; Line 114
	mulps	xmm2, XMMWORD PTR [rdx+rax*8]
; Line 116
	movaps	xmm1, xmm2
	movaps	xmm0, xmm2
	shufps	xmm0, xmm2, 85				; 00000055H
	addss	xmm1, xmm0
; Line 117
	movhlps	xmm2, xmm2
; Line 118
	addss	xmm1, xmm2
; File C:\Users\artem.zyktin\projects\tenvex\src\codegen\cg_reductions.cpp
; Line 16
	movss	DWORD PTR [r8+r10*4], xmm1
; File C:\Users\artem.zyktin\projects\tenvex\src\tenvex\expressions\vec\dot3_impl.hpp
; Line 11
	movups	xmm2, XMMWORD PTR [rcx+rax*8+16]
; File C:\Users\artem.zyktin\projects\tenvex\src\tenvex\expressions\core\core_sse.h
; Line 114
	mulps	xmm2, XMMWORD PTR [rdx+rax*8+16]
; Line 116
	movaps	xmm1, xmm2
	movaps	xmm0, xmm2
	shufps	xmm0, xmm2, 85				; 00000055H
	addss	xmm1, xmm0
; Line 117
	movhlps	xmm2, xmm2
; Line 118
	addss	xmm1, xmm2
; File C:\Users\artem.zyktin\projects\tenvex\src\codegen\cg_reductions.cpp
; Line 16
	movss	DWORD PTR [r8+r10*4+4], xmm1
; File C:\Users\artem.zyktin\projects\tenvex\src\tenvex\expressions\vec\dot3_impl.hpp
; Line 11
	movups	xmm2, XMMWORD PTR [r11+rcx+32]
; File C:\Users\artem.zyktin\projects\tenvex\src\tenvex\expressions\core\core_sse.h
; Line 114
	mulps	xmm2, XMMWORD PTR [r11+rdx+32]
; Line 116
	movaps	xmm1, xmm2
	movaps	xmm0, xmm2
	shufps	xmm0, xmm2, 85				; 00000055H
	addss	xmm1, xmm0
; Line 117
	movhlps	xmm2, xmm2
; Line 118
	addss	xmm1, xmm2
; File C:\Users\artem.zyktin\projects\tenvex\src\codegen\cg_reductions.cpp
; Line 16
	movss	DWORD PTR [r8+r10*4+8], xmm1
; File C:\Users\artem.zyktin\projects\tenvex\src\tenvex\expressions\vec\dot3_impl.hpp
; Line 11
	movups	xmm2, XMMWORD PTR [r11+rcx+48]
; File C:\Users\artem.zyktin\projects\tenvex\src\tenvex\expressions\core\core_sse.h
; Line 114
	mulps	xmm2, XMMWORD PTR [r11+rdx+48]
; File C:\Users\artem.zyktin\projects\tenvex\src\codegen\cg_reductions.cpp
; Line 16
	add	r11, 64					; 00000040H
; File C:\Users\artem.zyktin\projects\tenvex\src\tenvex\expressions\core\core_sse.h
; Line 115
	movaps	xmm0, xmm2
; Line 116
	movaps	xmm1, xmm2
	shufps	xmm0, xmm2, 85				; 00000055H
	addss	xmm1, xmm0
; Line 117
	movhlps	xmm2, xmm2
; Line 118
	addss	xmm1, xmm2
; File C:\Users\artem.zyktin\projects\tenvex\src\codegen\cg_reductions.cpp
; Line 16
	movss	DWORD PTR [r8+r10*4+12], xmm1
	add	r10, 4
	cmp	r10, rbx
	jb	$LL35@cg_dot3
	mov	rbx, QWORD PTR [rsp]
$LC34@cg_dot3:
; Line 15
	cmp	r10, r9
	jae	SHORT $LN33@cg_dot3
$LC4@cg_dot3:
; Line 16
	mov	rax, r10
	add	rax, rax
; File C:\Users\artem.zyktin\projects\tenvex\src\tenvex\expressions\vec\dot3_impl.hpp
; Line 11
	movups	xmm2, XMMWORD PTR [rcx+rax*8]
; File C:\Users\artem.zyktin\projects\tenvex\src\tenvex\expressions\core\core_sse.h
; Line 114
	mulps	xmm2, XMMWORD PTR [rdx+rax*8]
; Line 115
	movaps	xmm0, xmm2
; Line 116
	movaps	xmm1, xmm2
	shufps	xmm0, xmm2, 85				; 00000055H
	addss	xmm1, xmm0
; Line 117
	movhlps	xmm2, xmm2
; Line 118
	addss	xmm1, xmm2
; File C:\Users\artem.zyktin\projects\tenvex\src\codegen\cg_reductions.cpp
; Line 16
	movss	DWORD PTR [r8+r10*4], xmm1
	inc	r10
	cmp	r10, r9
	jb	SHORT $LC4@cg_dot3
$LN33@cg_dot3:
; Line 17
	add	rsp, 8
	ret	0
cg_dot3	ENDP
_TEXT	ENDS
; Function compile flags: /Ogtpy
;	COMDAT cg_dot4
_TEXT	SEGMENT
va$ = 16
vb$ = 24
out$ = 32
n$ = 40
cg_dot4	PROC						; COMDAT
; File C:\Users\artem.zyktin\projects\tenvex\src\codegen\cg_reductions.cpp
; Line 21
$LN44:
	sub	rsp, 8
	xor	r10d, r10d
; Line 22
	cmp	r9, 4
	jb	$LC34@cg_dot4
	mov	QWORD PTR [rsp], rbx
	xor	r11d, r11d
	lea	rbx, QWORD PTR [r9-3]
	npad	4
$LL35@cg_dot4:
; Line 23
	mov	rax, r10
	add	rax, rax
; File C:\Users\artem.zyktin\projects\tenvex\src\tenvex\expressions\common\dot4_impl.hpp
; Line 13
	movups	xmm0, XMMWORD PTR [rdx+rax*8]
; File C:\Users\artem.zyktin\projects\tenvex\src\tenvex\expressions\core\core_sse.h
; Line 125
	mulps	xmm0, XMMWORD PTR [rcx+rax*8]
; Line 126
	haddps	xmm0, xmm0
; Line 127
	haddps	xmm0, xmm0
; File C:\Users\artem.zyktin\projects\tenvex\src\codegen\cg_reductions.cpp
; Line 23
	movss	DWORD PTR [r8+r10*4], xmm0
; File C:\Users\artem.zyktin\projects\tenvex\src\tenvex\expressions\common\dot4_impl.hpp
; Line 13
	movups	xmm0, XMMWORD PTR [rdx+rax*8+16]
; File C:\Users\artem.zyktin\projects\tenvex\src\tenvex\expressions\core\core_sse.h
; Line 125
	mulps	xmm0, XMMWORD PTR [rcx+rax*8+16]
; Line 126
	haddps	xmm0, xmm0
; Line 127
	haddps	xmm0, xmm0
; File C:\Users\artem.zyktin\projects\tenvex\src\codegen\cg_reductions.cpp
; Line 23
	movss	DWORD PTR [r8+r10*4+4], xmm0
; File C:\Users\artem.zyktin\projects\tenvex\src\tenvex\expressions\common\dot4_impl.hpp
; Line 13
	movups	xmm0, XMMWORD PTR [r11+rdx+32]
; File C:\Users\artem.zyktin\projects\tenvex\src\tenvex\expressions\core\core_sse.h
; Line 125
	mulps	xmm0, XMMWORD PTR [r11+rcx+32]
; Line 126
	haddps	xmm0, xmm0
; Line 127
	haddps	xmm0, xmm0
; File C:\Users\artem.zyktin\projects\tenvex\src\codegen\cg_reductions.cpp
; Line 23
	movss	DWORD PTR [r8+r10*4+8], xmm0
; File C:\Users\artem.zyktin\projects\tenvex\src\tenvex\expressions\common\dot4_impl.hpp
; Line 13
	movups	xmm0, XMMWORD PTR [r11+rdx+48]
; File C:\Users\artem.zyktin\projects\tenvex\src\tenvex\expressions\core\core_sse.h
; Line 125
	mulps	xmm0, XMMWORD PTR [r11+rcx+48]
; File C:\Users\artem.zyktin\projects\tenvex\src\codegen\cg_reductions.cpp
; Line 23
	add	r11, 64					; 00000040H
; File C:\Users\artem.zyktin\projects\tenvex\src\tenvex\expressions\core\core_sse.h
; Line 126
	haddps	xmm0, xmm0
; Line 127
	haddps	xmm0, xmm0
; File C:\Users\artem.zyktin\projects\tenvex\src\codegen\cg_reductions.cpp
; Line 23
	movss	DWORD PTR [r8+r10*4+12], xmm0
	add	r10, 4
	cmp	r10, rbx
	jb	SHORT $LL35@cg_dot4
	mov	rbx, QWORD PTR [rsp]
$LC34@cg_dot4:
; Line 22
	cmp	r10, r9
	jae	SHORT $LN33@cg_dot4
$LC4@cg_dot4:
; Line 23
	mov	rax, r10
	add	rax, rax
; File C:\Users\artem.zyktin\projects\tenvex\src\tenvex\expressions\common\dot4_impl.hpp
; Line 13
	movups	xmm0, XMMWORD PTR [rdx+rax*8]
; File C:\Users\artem.zyktin\projects\tenvex\src\tenvex\expressions\core\core_sse.h
; Line 125
	mulps	xmm0, XMMWORD PTR [rcx+rax*8]
; Line 126
	haddps	xmm0, xmm0
; Line 127
	haddps	xmm0, xmm0
; File C:\Users\artem.zyktin\projects\tenvex\src\codegen\cg_reductions.cpp
; Line 23
	movss	DWORD PTR [r8+r10*4], xmm0
	inc	r10
	cmp	r10, r9
	jb	SHORT $LC4@cg_dot4
$LN33@cg_dot4:
; Line 24
	add	rsp, 8
	ret	0
cg_dot4	ENDP
_TEXT	ENDS
; Function compile flags: /Ogtpy
;	COMDAT ??$dot4@Uvec4@tnvx@@U12@@tnvx@@YA?AU?$Dot4@Uvec4@tnvx@@U12@@0@AEBUvec4@0@0@Z
_TEXT	SEGMENT
__$ReturnUdt$ = 8
l$ = 16
r$ = 24
??$dot4@Uvec4@tnvx@@U12@@tnvx@@YA?AU?$Dot4@Uvec4@tnvx@@U12@@0@AEBUvec4@0@0@Z PROC ; tnvx::dot4<tnvx::vec4,tnvx::vec4>, COMDAT
; File C:\Users\artem.zyktin\projects\tenvex\src\tenvex\expressions\common\dot4_impl.hpp
; Line 12
	movaps	xmm0, XMMWORD PTR [rdx]
; Line 38
	mov	rax, rcx
; Line 13
	movaps	xmm1, XMMWORD PTR [r8]
	movups	XMMWORD PTR [rcx], xmm0
	movups	XMMWORD PTR [rcx+16], xmm1
; Line 39
	ret	0
??$dot4@Uvec4@tnvx@@U12@@tnvx@@YA?AU?$Dot4@Uvec4@tnvx@@U12@@0@AEBUvec4@0@0@Z ENDP ; tnvx::dot4<tnvx::vec4,tnvx::vec4>
_TEXT	ENDS
; Function compile flags: /Ogtpy
;	COMDAT ??0?$Dot4@Uvec4@tnvx@@U12@@tnvx@@QEAA@AEIBUvec4@1@0@Z
_TEXT	SEGMENT
this$ = 8
l$ = 16
r$ = 24
??0?$Dot4@Uvec4@tnvx@@U12@@tnvx@@QEAA@AEIBUvec4@1@0@Z PROC ; tnvx::Dot4<tnvx::vec4,tnvx::vec4>::Dot4<tnvx::vec4,tnvx::vec4>, COMDAT
; File C:\Users\artem.zyktin\projects\tenvex\src\tenvex\expressions\common\dot4_impl.hpp
; Line 12
	movaps	xmm0, XMMWORD PTR [rdx]
; Line 15
	mov	rax, rcx
	movaps	xmm1, XMMWORD PTR [r8]
	movups	XMMWORD PTR [rcx], xmm0
	movups	XMMWORD PTR [rcx+16], xmm1
	ret	0
??0?$Dot4@Uvec4@tnvx@@U12@@tnvx@@QEAA@AEIBUvec4@1@0@Z ENDP ; tnvx::Dot4<tnvx::vec4,tnvx::vec4>::Dot4<tnvx::vec4,tnvx::vec4>
_TEXT	ENDS
; Function compile flags: /Ogtpy
;	COMDAT ?eval@?$Dot4@Uvec4@tnvx@@U12@@tnvx@@QEBA?AT__m128@@XZ
_TEXT	SEGMENT
this$ = 8
__$ReturnUdt$ = 16
?eval@?$Dot4@Uvec4@tnvx@@U12@@tnvx@@QEBA?AT__m128@@XZ PROC ; tnvx::Dot4<tnvx::vec4,tnvx::vec4>::eval, COMDAT
; File C:\Users\artem.zyktin\projects\tenvex\src\tenvex\expressions\common\dot4_impl.hpp
; File C:\Users\artem.zyktin\projects\tenvex\src\tenvex\expressions\core\core_sse.h
; Line 125
	movups	xmm0, XMMWORD PTR [rcx+16]
; File C:\Users\artem.zyktin\projects\tenvex\src\tenvex\expressions\common\dot4_impl.hpp
; Line 22
	mov	rax, rdx
; File C:\Users\artem.zyktin\projects\tenvex\src\tenvex\expressions\core\core_sse.h
; Line 125
	mulps	xmm0, XMMWORD PTR [rcx]
; Line 126
	haddps	xmm0, xmm0
; Line 127
	haddps	xmm0, xmm0
; File C:\Users\artem.zyktin\projects\tenvex\src\tenvex\expressions\common\dot4_impl.hpp
; Line 22
	movups	XMMWORD PTR [rdx], xmm0
; Line 23
	ret	0
?eval@?$Dot4@Uvec4@tnvx@@U12@@tnvx@@QEBA?AT__m128@@XZ ENDP ; tnvx::Dot4<tnvx::vec4,tnvx::vec4>::eval
_TEXT	ENDS
; Function compile flags: /Ogtpy
;	COMDAT ??B?$Dot4@Uvec4@tnvx@@U12@@tnvx@@QEBAMXZ
_TEXT	SEGMENT
this$ = 8
??B?$Dot4@Uvec4@tnvx@@U12@@tnvx@@QEBAMXZ PROC		; tnvx::Dot4<tnvx::vec4,tnvx::vec4>::operator float, COMDAT
; File C:\Users\artem.zyktin\projects\tenvex\src\tenvex\expressions\common\dot4_impl.hpp
; File C:\Users\artem.zyktin\projects\tenvex\src\tenvex\expressions\core\core_sse.h
; Line 125
	movups	xmm0, XMMWORD PTR [rcx+16]
	mulps	xmm0, XMMWORD PTR [rcx]
; Line 126
	haddps	xmm0, xmm0
; Line 127
	haddps	xmm0, xmm0
; File C:\Users\artem.zyktin\projects\tenvex\src\tenvex\expressions\common\dot4_impl.hpp
; Line 31
	ret	0
??B?$Dot4@Uvec4@tnvx@@U12@@tnvx@@QEBAMXZ ENDP		; tnvx::Dot4<tnvx::vec4,tnvx::vec4>::operator float
_TEXT	ENDS
; Function compile flags: /Ogtpy
;	COMDAT cg_magnitude3
_TEXT	SEGMENT
va$ = 8
out$ = 16
n$ = 24
cg_magnitude3 PROC					; COMDAT
; File C:\Users\artem.zyktin\projects\tenvex\src\codegen\cg_reductions.cpp
; Line 27
	xor	r9d, r9d
; Line 28
	cmp	r8, 4
	jb	$LC34@cg_magnitu
	lea	r10, QWORD PTR [r8-3]
	npad	15
$LL35@cg_magnitu:
; Line 29
	mov	rax, r9
	add	rax, rax
; File C:\Users\artem.zyktin\projects\tenvex\src\tenvex\expressions\vec\magnitude3_impl.hpp
; Line 20
	movups	xmm2, XMMWORD PTR [rcx+rax*8]
; File C:\Users\artem.zyktin\projects\tenvex\src\tenvex\expressions\core\core_sse.h
; Line 114
	mulps	xmm2, xmm2
; Line 116
	movaps	xmm1, xmm2
	movaps	xmm0, xmm2
	shufps	xmm0, xmm2, 85				; 00000055H
	addss	xmm1, xmm0
; Line 117
	movhlps	xmm2, xmm2
; Line 118
	addss	xmm1, xmm2
; Line 119
	shufps	xmm1, xmm1, 0
; Line 133
	sqrtps	xmm0, xmm1
; File C:\Users\artem.zyktin\projects\tenvex\src\codegen\cg_reductions.cpp
; Line 29
	movss	DWORD PTR [rdx+r9*4], xmm0
; File C:\Users\artem.zyktin\projects\tenvex\src\tenvex\expressions\vec\magnitude3_impl.hpp
; Line 20
	movups	xmm2, XMMWORD PTR [rcx+rax*8+16]
; File C:\Users\artem.zyktin\projects\tenvex\src\tenvex\expressions\core\core_sse.h
; Line 114
	mulps	xmm2, xmm2
; Line 116
	movaps	xmm1, xmm2
	movaps	xmm0, xmm2
	shufps	xmm0, xmm2, 85				; 00000055H
	addss	xmm1, xmm0
; Line 117
	movhlps	xmm2, xmm2
; Line 118
	addss	xmm1, xmm2
; Line 119
	shufps	xmm1, xmm1, 0
; Line 133
	sqrtps	xmm0, xmm1
; File C:\Users\artem.zyktin\projects\tenvex\src\codegen\cg_reductions.cpp
; Line 29
	movss	DWORD PTR [rdx+r9*4+4], xmm0
; File C:\Users\artem.zyktin\projects\tenvex\src\tenvex\expressions\vec\magnitude3_impl.hpp
; Line 20
	movups	xmm2, XMMWORD PTR [rcx+rax*8+32]
; File C:\Users\artem.zyktin\projects\tenvex\src\tenvex\expressions\core\core_sse.h
; Line 114
	mulps	xmm2, xmm2
; Line 116
	movaps	xmm1, xmm2
	movaps	xmm0, xmm2
	shufps	xmm0, xmm2, 85				; 00000055H
	addss	xmm1, xmm0
; Line 117
	movhlps	xmm2, xmm2
; Line 118
	addss	xmm1, xmm2
; Line 119
	shufps	xmm1, xmm1, 0
; Line 133
	sqrtps	xmm0, xmm1
; File C:\Users\artem.zyktin\projects\tenvex\src\codegen\cg_reductions.cpp
; Line 29
	movss	DWORD PTR [rdx+r9*4+8], xmm0
; File C:\Users\artem.zyktin\projects\tenvex\src\tenvex\expressions\vec\magnitude3_impl.hpp
; Line 20
	movups	xmm2, XMMWORD PTR [rcx+rax*8+48]
; File C:\Users\artem.zyktin\projects\tenvex\src\tenvex\expressions\core\core_sse.h
; Line 114
	mulps	xmm2, xmm2
; Line 116
	movaps	xmm1, xmm2
	movaps	xmm0, xmm2
	shufps	xmm0, xmm2, 85				; 00000055H
	addss	xmm1, xmm0
; Line 117
	movhlps	xmm2, xmm2
; Line 118
	addss	xmm1, xmm2
; Line 119
	shufps	xmm1, xmm1, 0
; Line 133
	sqrtps	xmm0, xmm1
; File C:\Users\artem.zyktin\projects\tenvex\src\codegen\cg_reductions.cpp
; Line 29
	movss	DWORD PTR [rdx+r9*4+12], xmm0
	add	r9, 4
	cmp	r9, r10
	jb	$LL35@cg_magnitu
$LC34@cg_magnitu:
; Line 28
	cmp	r9, r8
	jae	SHORT $LN33@cg_magnitu
$LC4@cg_magnitu:
; Line 29
	mov	rax, r9
	add	rax, rax
; File C:\Users\artem.zyktin\projects\tenvex\src\tenvex\expressions\vec\magnitude3_impl.hpp
; Line 20
	movups	xmm2, XMMWORD PTR [rcx+rax*8]
; File C:\Users\artem.zyktin\projects\tenvex\src\tenvex\expressions\core\core_sse.h
; Line 114
	mulps	xmm2, xmm2
; Line 116
	movaps	xmm1, xmm2
	movaps	xmm0, xmm2
	shufps	xmm0, xmm2, 85				; 00000055H
	addss	xmm1, xmm0
; Line 117
	movhlps	xmm2, xmm2
; Line 118
	addss	xmm1, xmm2
; Line 119
	shufps	xmm1, xmm1, 0
; Line 133
	sqrtps	xmm0, xmm1
; File C:\Users\artem.zyktin\projects\tenvex\src\codegen\cg_reductions.cpp
; Line 29
	movss	DWORD PTR [rdx+r9*4], xmm0
	inc	r9
	cmp	r9, r8
	jb	SHORT $LC4@cg_magnitu
$LN33@cg_magnitu:
; Line 30
	ret	0
cg_magnitude3 ENDP
_TEXT	ENDS
; Function compile flags: /Ogtpy
;	COMDAT cg_magnitude3_sq
_TEXT	SEGMENT
va$ = 8
out$ = 16
n$ = 24
cg_magnitude3_sq PROC					; COMDAT
; File C:\Users\artem.zyktin\projects\tenvex\src\codegen\cg_reductions.cpp
; Line 33
	xor	r9d, r9d
; Line 34
	cmp	r8, 4
	jb	$LC34@cg_magnitu
	lea	r10, QWORD PTR [r8-3]
	npad	15
$LL35@cg_magnitu:
; Line 35
	mov	rax, r9
	add	rax, rax
; File C:\Users\artem.zyktin\projects\tenvex\src\tenvex\expressions\vec\magnitude3_sq_impl.hpp
; Line 19
	movups	xmm2, XMMWORD PTR [rcx+rax*8]
; File C:\Users\artem.zyktin\projects\tenvex\src\tenvex\expressions\core\core_sse.h
; Line 114
	mulps	xmm2, xmm2
; Line 116
	movaps	xmm1, xmm2
	movaps	xmm0, xmm2
	shufps	xmm0, xmm2, 85				; 00000055H
	addss	xmm1, xmm0
; Line 117
	movhlps	xmm2, xmm2
; Line 118
	addss	xmm1, xmm2
; File C:\Users\artem.zyktin\projects\tenvex\src\codegen\cg_reductions.cpp
; Line 35
	movss	DWORD PTR [rdx+r9*4], xmm1
; File C:\Users\artem.zyktin\projects\tenvex\src\tenvex\expressions\vec\magnitude3_sq_impl.hpp
; Line 19
	movups	xmm2, XMMWORD PTR [rcx+rax*8+16]
; File C:\Users\artem.zyktin\projects\tenvex\src\tenvex\expressions\core\core_sse.h
; Line 114
	mulps	xmm2, xmm2
; Line 116
	movaps	xmm1, xmm2
	movaps	xmm0, xmm2
	shufps	xmm0, xmm2, 85				; 00000055H
	addss	xmm1, xmm0
; Line 117
	movhlps	xmm2, xmm2
; Line 118
	addss	xmm1, xmm2
; File C:\Users\artem.zyktin\projects\tenvex\src\codegen\cg_reductions.cpp
; Line 35
	movss	DWORD PTR [rdx+r9*4+4], xmm1
; File C:\Users\artem.zyktin\projects\tenvex\src\tenvex\expressions\vec\magnitude3_sq_impl.hpp
; Line 19
	movups	xmm2, XMMWORD PTR [rcx+rax*8+32]
; File C:\Users\artem.zyktin\projects\tenvex\src\tenvex\expressions\core\core_sse.h
; Line 114
	mulps	xmm2, xmm2
; Line 116
	movaps	xmm1, xmm2
	movaps	xmm0, xmm2
	shufps	xmm0, xmm2, 85				; 00000055H
	addss	xmm1, xmm0
; Line 117
	movhlps	xmm2, xmm2
; Line 118
	addss	xmm1, xmm2
; File C:\Users\artem.zyktin\projects\tenvex\src\codegen\cg_reductions.cpp
; Line 35
	movss	DWORD PTR [rdx+r9*4+8], xmm1
; File C:\Users\artem.zyktin\projects\tenvex\src\tenvex\expressions\vec\magnitude3_sq_impl.hpp
; Line 19
	movups	xmm2, XMMWORD PTR [rcx+rax*8+48]
; File C:\Users\artem.zyktin\projects\tenvex\src\tenvex\expressions\core\core_sse.h
; Line 114
	mulps	xmm2, xmm2
; Line 115
	movaps	xmm0, xmm2
; Line 116
	movaps	xmm1, xmm2
	shufps	xmm0, xmm2, 85				; 00000055H
	addss	xmm1, xmm0
; Line 117
	movhlps	xmm2, xmm2
; Line 118
	addss	xmm1, xmm2
; File C:\Users\artem.zyktin\projects\tenvex\src\codegen\cg_reductions.cpp
; Line 35
	movss	DWORD PTR [rdx+r9*4+12], xmm1
	add	r9, 4
	cmp	r9, r10
	jb	$LL35@cg_magnitu
$LC34@cg_magnitu:
; Line 34
	cmp	r9, r8
	jae	SHORT $LN33@cg_magnitu
$LC4@cg_magnitu:
; Line 35
	mov	rax, r9
	add	rax, rax
; File C:\Users\artem.zyktin\projects\tenvex\src\tenvex\expressions\vec\magnitude3_sq_impl.hpp
; Line 19
	movups	xmm2, XMMWORD PTR [rcx+rax*8]
; File C:\Users\artem.zyktin\projects\tenvex\src\tenvex\expressions\core\core_sse.h
; Line 114
	mulps	xmm2, xmm2
; Line 115
	movaps	xmm0, xmm2
; Line 116
	movaps	xmm1, xmm2
	shufps	xmm0, xmm2, 85				; 00000055H
	addss	xmm1, xmm0
; Line 117
	movhlps	xmm2, xmm2
; Line 118
	addss	xmm1, xmm2
; File C:\Users\artem.zyktin\projects\tenvex\src\codegen\cg_reductions.cpp
; Line 35
	movss	DWORD PTR [rdx+r9*4], xmm1
	inc	r9
	cmp	r9, r8
	jb	SHORT $LC4@cg_magnitu
$LN33@cg_magnitu:
; Line 36
	ret	0
cg_magnitude3_sq ENDP
_TEXT	ENDS
; Function compile flags: /Ogtpy
;	COMDAT ??$magnitude3_sq@Uvec4@tnvx@@@tnvx@@YA?AU?$Magn3Sq@Uvec4@tnvx@@@0@AEBUvec4@0@@Z
_TEXT	SEGMENT
__$ReturnUdt$ = 8
e$ = 16
??$magnitude3_sq@Uvec4@tnvx@@@tnvx@@YA?AU?$Magn3Sq@Uvec4@tnvx@@@0@AEBUvec4@0@@Z PROC ; tnvx::magnitude3_sq<tnvx::vec4>, COMDAT
; File C:\Users\artem.zyktin\projects\tenvex\src\tenvex\expressions\vec\magnitude3_sq_impl.hpp
; Line 11
	movaps	xmm0, XMMWORD PTR [rdx]
; Line 33
	mov	rax, rcx
; Line 11
	movups	XMMWORD PTR [rcx], xmm0
; Line 34
	ret	0
??$magnitude3_sq@Uvec4@tnvx@@@tnvx@@YA?AU?$Magn3Sq@Uvec4@tnvx@@@0@AEBUvec4@0@@Z ENDP ; tnvx::magnitude3_sq<tnvx::vec4>
_TEXT	ENDS
; Function compile flags: /Ogtpy
;	COMDAT ??0?$Magn3Sq@Uvec4@tnvx@@@tnvx@@QEAA@AEIBUvec4@1@@Z
_TEXT	SEGMENT
this$ = 8
e$ = 16
??0?$Magn3Sq@Uvec4@tnvx@@@tnvx@@QEAA@AEIBUvec4@1@@Z PROC ; tnvx::Magn3Sq<tnvx::vec4>::Magn3Sq<tnvx::vec4>, COMDAT
; File C:\Users\artem.zyktin\projects\tenvex\src\tenvex\expressions\vec\magnitude3_sq_impl.hpp
; Line 11
	movaps	xmm0, XMMWORD PTR [rdx]
; Line 13
	mov	rax, rcx
	movups	XMMWORD PTR [rcx], xmm0
	ret	0
??0?$Magn3Sq@Uvec4@tnvx@@@tnvx@@QEAA@AEIBUvec4@1@@Z ENDP ; tnvx::Magn3Sq<tnvx::vec4>::Magn3Sq<tnvx::vec4>
_TEXT	ENDS
; Function compile flags: /Ogtpy
;	COMDAT ?eval@?$Magn3Sq@Uvec4@tnvx@@@tnvx@@QEBA?AT__m128@@XZ
_TEXT	SEGMENT
this$ = 8
__$ReturnUdt$ = 16
?eval@?$Magn3Sq@Uvec4@tnvx@@@tnvx@@QEBA?AT__m128@@XZ PROC ; tnvx::Magn3Sq<tnvx::vec4>::eval, COMDAT
; File C:\Users\artem.zyktin\projects\tenvex\src\tenvex\expressions\vec\magnitude3_sq_impl.hpp
; File C:\Users\artem.zyktin\projects\tenvex\src\tenvex\expressions\vec\vec4_impl.hpp
; Line 17
	movups	xmm2, XMMWORD PTR [rcx]
; File C:\Users\artem.zyktin\projects\tenvex\src\tenvex\expressions\vec\magnitude3_sq_impl.hpp
; Line 19
	mov	rax, rdx
; File C:\Users\artem.zyktin\projects\tenvex\src\tenvex\expressions\core\core_sse.h
; Line 114
	mulps	xmm2, xmm2
; Line 116
	movaps	xmm1, xmm2
	movaps	xmm0, xmm2
	shufps	xmm0, xmm2, 85				; 00000055H
	addss	xmm1, xmm0
; Line 117
	movhlps	xmm2, xmm2
; Line 118
	addss	xmm1, xmm2
; Line 119
	shufps	xmm1, xmm1, 0
; File C:\Users\artem.zyktin\projects\tenvex\src\tenvex\expressions\vec\magnitude3_sq_impl.hpp
; Line 19
	movups	XMMWORD PTR [rdx], xmm1
; Line 20
	ret	0
?eval@?$Magn3Sq@Uvec4@tnvx@@@tnvx@@QEBA?AT__m128@@XZ ENDP ; tnvx::Magn3Sq<tnvx::vec4>::eval
_TEXT	ENDS
; Function compile flags: /Ogtpy
;	COMDAT ??B?$Magn3Sq@Uvec4@tnvx@@@tnvx@@QEBAMXZ
_TEXT	SEGMENT
this$ = 8
??B?$Magn3Sq@Uvec4@tnvx@@@tnvx@@QEBAMXZ PROC		; tnvx::Magn3Sq<tnvx::vec4>::operator float, COMDAT
; File C:\Users\artem.zyktin\projects\tenvex\src\tenvex\expressions\vec\magnitude3_sq_impl.hpp
; File C:\Users\artem.zyktin\projects\tenvex\src\tenvex\expressions\vec\vec4_impl.hpp
; Line 17
	movups	xmm2, XMMWORD PTR [rcx]
; File C:\Users\artem.zyktin\projects\tenvex\src\tenvex\expressions\core\core_sse.h
; Line 114
	mulps	xmm2, xmm2
; Line 115
	movaps	xmm1, xmm2
; Line 116
	movaps	xmm0, xmm2
	shufps	xmm1, xmm2, 85				; 00000055H
	addss	xmm0, xmm1
; Line 117
	movhlps	xmm2, xmm2
; Line 118
	addss	xmm0, xmm2
; File C:\Users\artem.zyktin\projects\tenvex\src\tenvex\expressions\vec\magnitude3_sq_impl.hpp
; Line 27
	ret	0
??B?$Magn3Sq@Uvec4@tnvx@@@tnvx@@QEBAMXZ ENDP		; tnvx::Magn3Sq<tnvx::vec4>::operator float
_TEXT	ENDS
; Function compile flags: /Ogtpy
;	COMDAT cg_mag3_lt_mag3
_TEXT	SEGMENT
va$ = 16
vb$ = 24
out$ = 32
n$ = 40
cg_mag3_lt_mag3 PROC					; COMDAT
; File C:\Users\artem.zyktin\projects\tenvex\src\codegen\cg_reductions.cpp
; Line 41
$LN82:
	sub	rsp, 8
	xor	r10d, r10d
	mov	r11, rcx
; Line 42
	cmp	r9, 4
	jb	$LC72@cg_mag3_lt
	mov	QWORD PTR [rsp+16], rbx
	xor	ebx, ebx
	mov	QWORD PTR [rsp], rdi
	lea	rdi, QWORD PTR [r9-3]
	npad	13
$LL73@cg_mag3_lt:
; Line 43
	mov	rcx, r10
	add	rcx, rcx
; File C:\Users\artem.zyktin\projects\tenvex\src\tenvex\expressions\vec\magnitude3_sq_impl.hpp
; Line 19
	movups	xmm1, XMMWORD PTR [r11+rcx*8]
	movups	xmm2, XMMWORD PTR [rdx+rcx*8]
; File C:\Users\artem.zyktin\projects\tenvex\src\tenvex\expressions\core\core_sse.h
; Line 114
	mulps	xmm1, xmm1
	mulps	xmm2, xmm2
; Line 116
	movaps	xmm3, xmm1
	movaps	xmm0, xmm1
	shufps	xmm0, xmm1, 85				; 00000055H
	addss	xmm3, xmm0
; Line 117
	movhlps	xmm1, xmm1
; Line 115
	movaps	xmm0, xmm2
	shufps	xmm0, xmm2, 85				; 00000055H
; Line 118
	addss	xmm3, xmm1
; Line 116
	movaps	xmm1, xmm2
	addss	xmm1, xmm0
; Line 117
	movhlps	xmm2, xmm2
; Line 118
	addss	xmm1, xmm2
; File C:\Users\artem.zyktin\projects\tenvex\src\tenvex\expressions\vec\magnitude3_compare_impl.hpp
; Line 12
	comiss	xmm1, xmm3
	seta	al
; File C:\Users\artem.zyktin\projects\tenvex\src\codegen\cg_reductions.cpp
; Line 43
	mov	BYTE PTR [r8+r10], al
; File C:\Users\artem.zyktin\projects\tenvex\src\tenvex\expressions\vec\magnitude3_sq_impl.hpp
; Line 19
	movups	xmm1, XMMWORD PTR [r11+rcx*8+16]
	movups	xmm2, XMMWORD PTR [rdx+rcx*8+16]
; File C:\Users\artem.zyktin\projects\tenvex\src\tenvex\expressions\core\core_sse.h
; Line 114
	mulps	xmm1, xmm1
	mulps	xmm2, xmm2
; Line 116
	movaps	xmm3, xmm1
	movaps	xmm0, xmm1
	shufps	xmm0, xmm1, 85				; 00000055H
	addss	xmm3, xmm0
; Line 117
	movhlps	xmm1, xmm1
; Line 115
	movaps	xmm0, xmm2
	shufps	xmm0, xmm2, 85				; 00000055H
; Line 118
	addss	xmm3, xmm1
; Line 116
	movaps	xmm1, xmm2
	addss	xmm1, xmm0
; Line 117
	movhlps	xmm2, xmm2
; Line 118
	addss	xmm1, xmm2
; File C:\Users\artem.zyktin\projects\tenvex\src\tenvex\expressions\vec\magnitude3_compare_impl.hpp
; Line 12
	comiss	xmm1, xmm3
	seta	al
; File C:\Users\artem.zyktin\projects\tenvex\src\codegen\cg_reductions.cpp
; Line 43
	mov	BYTE PTR [r8+r10+1], al
; File C:\Users\artem.zyktin\projects\tenvex\src\tenvex\expressions\vec\magnitude3_sq_impl.hpp
; Line 19
	movups	xmm1, XMMWORD PTR [rbx+r11+32]
	movups	xmm2, XMMWORD PTR [rbx+rdx+32]
; File C:\Users\artem.zyktin\projects\tenvex\src\tenvex\expressions\core\core_sse.h
; Line 114
	mulps	xmm1, xmm1
	mulps	xmm2, xmm2
; Line 116
	movaps	xmm3, xmm1
	movaps	xmm0, xmm1
	shufps	xmm0, xmm1, 85				; 00000055H
	addss	xmm3, xmm0
; Line 117
	movhlps	xmm1, xmm1
; Line 115
	movaps	xmm0, xmm2
	shufps	xmm0, xmm2, 85				; 00000055H
; Line 118
	addss	xmm3, xmm1
; Line 116
	movaps	xmm1, xmm2
	addss	xmm1, xmm0
; Line 117
	movhlps	xmm2, xmm2
; Line 118
	addss	xmm1, xmm2
; File C:\Users\artem.zyktin\projects\tenvex\src\tenvex\expressions\vec\magnitude3_compare_impl.hpp
; Line 12
	comiss	xmm1, xmm3
	seta	al
; File C:\Users\artem.zyktin\projects\tenvex\src\codegen\cg_reductions.cpp
; Line 43
	mov	BYTE PTR [r8+r10+2], al
; File C:\Users\artem.zyktin\projects\tenvex\src\tenvex\expressions\vec\magnitude3_sq_impl.hpp
; Line 19
	movups	xmm1, XMMWORD PTR [rbx+r11+48]
	movups	xmm2, XMMWORD PTR [rbx+rdx+48]
; File C:\Users\artem.zyktin\projects\tenvex\src\tenvex\expressions\core\core_sse.h
; Line 114
	mulps	xmm1, xmm1
	mulps	xmm2, xmm2
; Line 115
	movaps	xmm0, xmm1
; Line 116
	movaps	xmm3, xmm1
	shufps	xmm0, xmm1, 85				; 00000055H
; Line 117
	movhlps	xmm1, xmm1
	addss	xmm3, xmm0
; Line 115
	movaps	xmm0, xmm2
	shufps	xmm0, xmm2, 85				; 00000055H
; Line 118
	addss	xmm3, xmm1
; Line 116
	movaps	xmm1, xmm2
	addss	xmm1, xmm0
; Line 117
	movhlps	xmm2, xmm2
; Line 118
	addss	xmm1, xmm2
; File C:\Users\artem.zyktin\projects\tenvex\src\tenvex\expressions\vec\magnitude3_compare_impl.hpp
; Line 12
	comiss	xmm1, xmm3
	seta	al
; File C:\Users\artem.zyktin\projects\tenvex\src\codegen\cg_reductions.cpp
; Line 43
	add	rbx, 64					; 00000040H
	mov	BYTE PTR [r8+r10+3], al
	add	r10, 4
	cmp	r10, rdi
	jb	$LL73@cg_mag3_lt
	mov	rdi, QWORD PTR [rsp]
	mov	rbx, QWORD PTR [rsp+16]
$LC72@cg_mag3_lt:
; Line 42
	cmp	r10, r9
	jae	SHORT $LN71@cg_mag3_lt
$LC4@cg_mag3_lt:
; Line 43
	mov	rax, r10
	add	rax, rax
; File C:\Users\artem.zyktin\projects\tenvex\src\tenvex\expressions\vec\magnitude3_sq_impl.hpp
; Line 19
	movups	xmm1, XMMWORD PTR [r11+rax*8]
	movups	xmm2, XMMWORD PTR [rdx+rax*8]
; File C:\Users\artem.zyktin\projects\tenvex\src\tenvex\expressions\core\core_sse.h
; Line 114
	mulps	xmm1, xmm1
	mulps	xmm2, xmm2
; Line 115
	movaps	xmm0, xmm1
; Line 116
	movaps	xmm3, xmm1
	shufps	xmm0, xmm1, 85				; 00000055H
; Line 117
	movhlps	xmm1, xmm1
	addss	xmm3, xmm0
; Line 115
	movaps	xmm0, xmm2
	shufps	xmm0, xmm2, 85				; 00000055H
; Line 118
	addss	xmm3, xmm1
; Line 116
	movaps	xmm1, xmm2
	addss	xmm1, xmm0
; Line 117
	movhlps	xmm2, xmm2
; Line 118
	addss	xmm1, xmm2
; File C:\Users\artem.zyktin\projects\tenvex\src\tenvex\expressions\vec\magnitude3_compare_impl.hpp
; Line 12
	comiss	xmm1, xmm3
	seta	al
; File C:\Users\artem.zyktin\projects\tenvex\src\codegen\cg_reductions.cpp
; Line 43
	mov	BYTE PTR [r8+r10], al
	inc	r10
	cmp	r10, r9
	jb	SHORT $LC4@cg_mag3_lt
$LN71@cg_mag3_lt:
; Line 44
	add	rsp, 8
	ret	0
cg_mag3_lt_mag3 ENDP
_TEXT	ENDS
; Function compile flags: /Ogtpy
;	COMDAT ??$?MUvec4@tnvx@@U01@@tnvx@@YA_NAEBU?$Magn3@Uvec4@tnvx@@@0@0@Z
_TEXT	SEGMENT
a$ = 8
b$ = 16
??$?MUvec4@tnvx@@U01@@tnvx@@YA_NAEBU?$Magn3@Uvec4@tnvx@@@0@0@Z PROC ; tnvx::operator<<tnvx::vec4,tnvx::vec4>, COMDAT
; File C:\Users\artem.zyktin\projects\tenvex\src\tenvex\expressions\vec\magnitude3_compare_impl.hpp
; File C:\Users\artem.zyktin\projects\tenvex\src\tenvex\expressions\vec\magnitude3_sq_impl.hpp
; Line 19
	movups	xmm1, XMMWORD PTR [rcx]
	movups	xmm2, XMMWORD PTR [rdx]
; File C:\Users\artem.zyktin\projects\tenvex\src\tenvex\expressions\core\core_sse.h
; Line 114
	mulps	xmm1, xmm1
	mulps	xmm2, xmm2
; Line 115
	movaps	xmm0, xmm1
; Line 116
	movaps	xmm3, xmm1
	shufps	xmm0, xmm1, 85				; 00000055H
; Line 117
	movhlps	xmm1, xmm1
	addss	xmm3, xmm0
; Line 115
	movaps	xmm0, xmm2
	shufps	xmm0, xmm2, 85				; 00000055H
; Line 118
	addss	xmm3, xmm1
; Line 116
	movaps	xmm1, xmm2
	addss	xmm1, xmm0
; Line 117
	movhlps	xmm2, xmm2
; Line 118
	addss	xmm1, xmm2
; File C:\Users\artem.zyktin\projects\tenvex\src\tenvex\expressions\vec\magnitude3_compare_impl.hpp
; Line 12
	comiss	xmm1, xmm3
	seta	al
; Line 13
	ret	0
??$?MUvec4@tnvx@@U01@@tnvx@@YA_NAEBU?$Magn3@Uvec4@tnvx@@@0@0@Z ENDP ; tnvx::operator<<tnvx::vec4,tnvx::vec4>
_TEXT	ENDS
; Function compile flags: /Ogtpy
;	COMDAT cg_mag3_lt_scalar
_TEXT	SEGMENT
va$ = 8
r$ = 16
out$ = 24
n$ = 32
cg_mag3_lt_scalar PROC					; COMDAT
; File C:\Users\artem.zyktin\projects\tenvex\src\codegen\cg_reductions.cpp
; Line 49
	mov	r10, r8
	mov	r8, rcx
	movaps	xmm3, xmm1
; Line 50
	test	r9, r9
	je	$LN46@cg_mag3_lt
	xorps	xmm0, xmm0
; File C:\Users\artem.zyktin\projects\tenvex\src\tenvex\expressions\vec\magnitude3_compare_impl.hpp
; Line 20
	comiss	xmm0, xmm3
	jbe	SHORT $LN13@cg_mag3_lt
; File C:\Users\artem.zyktin\projects\tenvex\src\codegen\cg_reductions.cpp
; Line 51
	mov	r8, r9
	xor	edx, edx
	mov	rcx, r10
	jmp	memset
$LN13@cg_mag3_lt:
; Line 50
	xor	edx, edx
; File C:\Users\artem.zyktin\projects\tenvex\src\tenvex\expressions\vec\magnitude3_compare_impl.hpp
; Line 25
	mulss	xmm3, xmm3
; File C:\Users\artem.zyktin\projects\tenvex\src\codegen\cg_reductions.cpp
; Line 50
	cmp	r9, 4
	jb	$LC61@cg_mag3_lt
	lea	r11, QWORD PTR [r9-3]
	npad	5
$LL48@cg_mag3_lt:
; Line 51
	mov	rcx, rdx
	add	rcx, rcx
; File C:\Users\artem.zyktin\projects\tenvex\src\tenvex\expressions\vec\magnitude3_sq_impl.hpp
; Line 19
	movups	xmm2, XMMWORD PTR [r8+rcx*8]
; File C:\Users\artem.zyktin\projects\tenvex\src\tenvex\expressions\core\core_sse.h
; Line 114
	mulps	xmm2, xmm2
; Line 116
	movaps	xmm1, xmm2
	movaps	xmm0, xmm2
	shufps	xmm0, xmm2, 85				; 00000055H
	addss	xmm1, xmm0
; Line 117
	movhlps	xmm2, xmm2
; Line 118
	addss	xmm1, xmm2
; File C:\Users\artem.zyktin\projects\tenvex\src\tenvex\expressions\vec\magnitude3_compare_impl.hpp
; Line 25
	comiss	xmm3, xmm1
	seta	al
; File C:\Users\artem.zyktin\projects\tenvex\src\codegen\cg_reductions.cpp
; Line 51
	mov	BYTE PTR [r10+rdx], al
; File C:\Users\artem.zyktin\projects\tenvex\src\tenvex\expressions\vec\magnitude3_sq_impl.hpp
; Line 19
	movups	xmm2, XMMWORD PTR [r8+rcx*8+16]
; File C:\Users\artem.zyktin\projects\tenvex\src\tenvex\expressions\core\core_sse.h
; Line 114
	mulps	xmm2, xmm2
; Line 116
	movaps	xmm1, xmm2
	movaps	xmm0, xmm2
	shufps	xmm0, xmm2, 85				; 00000055H
	addss	xmm1, xmm0
; Line 117
	movhlps	xmm2, xmm2
; Line 118
	addss	xmm1, xmm2
; File C:\Users\artem.zyktin\projects\tenvex\src\tenvex\expressions\vec\magnitude3_compare_impl.hpp
; Line 25
	comiss	xmm3, xmm1
	seta	al
; File C:\Users\artem.zyktin\projects\tenvex\src\codegen\cg_reductions.cpp
; Line 51
	mov	BYTE PTR [r10+rdx+1], al
; File C:\Users\artem.zyktin\projects\tenvex\src\tenvex\expressions\vec\magnitude3_sq_impl.hpp
; Line 19
	movups	xmm2, XMMWORD PTR [r8+rcx*8+32]
; File C:\Users\artem.zyktin\projects\tenvex\src\tenvex\expressions\core\core_sse.h
; Line 114
	mulps	xmm2, xmm2
; Line 116
	movaps	xmm1, xmm2
	movaps	xmm0, xmm2
	shufps	xmm0, xmm2, 85				; 00000055H
	addss	xmm1, xmm0
; Line 117
	movhlps	xmm2, xmm2
; Line 118
	addss	xmm1, xmm2
; File C:\Users\artem.zyktin\projects\tenvex\src\tenvex\expressions\vec\magnitude3_compare_impl.hpp
; Line 25
	comiss	xmm3, xmm1
	seta	al
; File C:\Users\artem.zyktin\projects\tenvex\src\codegen\cg_reductions.cpp
; Line 51
	mov	BYTE PTR [r10+rdx+2], al
; File C:\Users\artem.zyktin\projects\tenvex\src\tenvex\expressions\vec\magnitude3_sq_impl.hpp
; Line 19
	movups	xmm2, XMMWORD PTR [r8+rcx*8+48]
; File C:\Users\artem.zyktin\projects\tenvex\src\tenvex\expressions\core\core_sse.h
; Line 114
	mulps	xmm2, xmm2
; Line 115
	movaps	xmm0, xmm2
; Line 116
	movaps	xmm1, xmm2
	shufps	xmm0, xmm2, 85				; 00000055H
	addss	xmm1, xmm0
; Line 117
	movhlps	xmm2, xmm2
; Line 118
	addss	xmm1, xmm2
; File C:\Users\artem.zyktin\projects\tenvex\src\tenvex\expressions\vec\magnitude3_compare_impl.hpp
; Line 25
	comiss	xmm3, xmm1
	seta	al
; File C:\Users\artem.zyktin\projects\tenvex\src\codegen\cg_reductions.cpp
; Line 51
	mov	BYTE PTR [r10+rdx+3], al
	add	rdx, 4
	cmp	rdx, r11
	jb	$LL48@cg_mag3_lt
; Line 50
	cmp	rdx, r9
	jae	SHORT $LN46@cg_mag3_lt
$LC61@cg_mag3_lt:
; Line 51
	mov	rax, rdx
	add	rax, rax
; File C:\Users\artem.zyktin\projects\tenvex\src\tenvex\expressions\vec\magnitude3_sq_impl.hpp
; Line 19
	movups	xmm2, XMMWORD PTR [r8+rax*8]
; File C:\Users\artem.zyktin\projects\tenvex\src\tenvex\expressions\core\core_sse.h
; Line 114
	mulps	xmm2, xmm2
; Line 115
	movaps	xmm0, xmm2
; Line 116
	movaps	xmm1, xmm2
	shufps	xmm0, xmm2, 85				; 00000055H
	addss	xmm1, xmm0
; Line 117
	movhlps	xmm2, xmm2
; Line 118
	addss	xmm1, xmm2
; File C:\Users\artem.zyktin\projects\tenvex\src\tenvex\expressions\vec\magnitude3_compare_impl.hpp
; Line 25
	comiss	xmm3, xmm1
	seta	al
; File C:\Users\artem.zyktin\projects\tenvex\src\codegen\cg_reductions.cpp
; Line 51
	mov	BYTE PTR [r10+rdx], al
	inc	rdx
	cmp	rdx, r9
	jb	SHORT $LC61@cg_mag3_lt
$LN46@cg_mag3_lt:
; Line 52
	ret	0
cg_mag3_lt_scalar ENDP
_TEXT	ENDS
; Function compile flags: /Ogtpy
;	COMDAT ??$?MUvec4@tnvx@@M@tnvx@@YA_NAEBU?$Magn3@Uvec4@tnvx@@@0@M@Z
_TEXT	SEGMENT
a$ = 8
c$ = 16
??$?MUvec4@tnvx@@M@tnvx@@YA_NAEBU?$Magn3@Uvec4@tnvx@@@0@M@Z PROC ; tnvx::operator<<tnvx::vec4,float>, COMDAT
; File C:\Users\artem.zyktin\projects\tenvex\src\tenvex\expressions\vec\magnitude3_compare_impl.hpp
; Line 19
	movaps	xmm3, xmm1
	xorps	xmm0, xmm0
; Line 20
	comiss	xmm0, xmm3
	jbe	SHORT $LN2@operator
; Line 22
	xor	al, al
; Line 26
	ret	0
$LN2@operator:
; File C:\Users\artem.zyktin\projects\tenvex\src\tenvex\expressions\vec\magnitude3_sq_impl.hpp
; Line 19
	movups	xmm2, XMMWORD PTR [rcx]
; File C:\Users\artem.zyktin\projects\tenvex\src\tenvex\expressions\core\core_sse.h
; Line 114
	mulps	xmm2, xmm2
; File C:\Users\artem.zyktin\projects\tenvex\src\tenvex\expressions\vec\magnitude3_compare_impl.hpp
; Line 25
	mulss	xmm3, xmm3
; File C:\Users\artem.zyktin\projects\tenvex\src\tenvex\expressions\core\core_sse.h
; Line 115
	movaps	xmm0, xmm2
; Line 116
	movaps	xmm1, xmm2
	shufps	xmm0, xmm2, 85				; 00000055H
	addss	xmm1, xmm0
; Line 117
	movhlps	xmm2, xmm2
; Line 118
	addss	xmm1, xmm2
; File C:\Users\artem.zyktin\projects\tenvex\src\tenvex\expressions\vec\magnitude3_compare_impl.hpp
; Line 25
	comiss	xmm3, xmm1
	seta	al
; Line 26
	ret	0
??$?MUvec4@tnvx@@M@tnvx@@YA_NAEBU?$Magn3@Uvec4@tnvx@@@0@M@Z ENDP ; tnvx::operator<<tnvx::vec4,float>
_TEXT	ENDS
END
